ARM GAS  C:\Users\J\AppData\Local\Temp\ccrWFtxe.s 			page 1


   1              		.cpu cortex-m4
   2              		.eabi_attribute 27, 1
   3              		.eabi_attribute 28, 1
   4              		.eabi_attribute 20, 1
   5              		.eabi_attribute 21, 1
   6              		.eabi_attribute 23, 3
   7              		.eabi_attribute 24, 1
   8              		.eabi_attribute 25, 1
   9              		.eabi_attribute 26, 1
  10              		.eabi_attribute 30, 1
  11              		.eabi_attribute 34, 1
  12              		.eabi_attribute 18, 4
  13              		.file	"at32f413_tmr.c"
  14              		.text
  15              	.Ltext0:
  16              		.cfi_sections	.debug_frame
  17              		.section	.text.tmr_reset,"ax",%progbits
  18              		.align	1
  19              		.global	tmr_reset
  20              		.arch armv7e-m
  21              		.syntax unified
  22              		.thumb
  23              		.thumb_func
  24              		.fpu fpv4-sp-d16
  26              	tmr_reset:
  27              	.LVL0:
  28              	.LFB133:
  29              		.file 1 "./libraries/drivers/src/at32f413_tmr.c"
   1:./libraries/drivers/src/at32f413_tmr.c **** /**
   2:./libraries/drivers/src/at32f413_tmr.c ****   **************************************************************************
   3:./libraries/drivers/src/at32f413_tmr.c ****   * @file     at32f413_tmr.c
   4:./libraries/drivers/src/at32f413_tmr.c ****   * @version  v2.0.5
   5:./libraries/drivers/src/at32f413_tmr.c ****   * @date     2022-05-20
   6:./libraries/drivers/src/at32f413_tmr.c ****   * @brief    contains all the functions for the tmr firmware library
   7:./libraries/drivers/src/at32f413_tmr.c ****   **************************************************************************
   8:./libraries/drivers/src/at32f413_tmr.c ****   *                       Copyright notice & Disclaimer
   9:./libraries/drivers/src/at32f413_tmr.c ****   *
  10:./libraries/drivers/src/at32f413_tmr.c ****   * The software Board Support Package (BSP) that is made available to
  11:./libraries/drivers/src/at32f413_tmr.c ****   * download from Artery official website is the copyrighted work of Artery.
  12:./libraries/drivers/src/at32f413_tmr.c ****   * Artery authorizes customers to use, copy, and distribute the BSP
  13:./libraries/drivers/src/at32f413_tmr.c ****   * software and its related documentation for the purpose of design and
  14:./libraries/drivers/src/at32f413_tmr.c ****   * development in conjunction with Artery microcontrollers. Use of the
  15:./libraries/drivers/src/at32f413_tmr.c ****   * software is governed by this copyright notice and the following disclaimer.
  16:./libraries/drivers/src/at32f413_tmr.c ****   *
  17:./libraries/drivers/src/at32f413_tmr.c ****   * THIS SOFTWARE IS PROVIDED ON "AS IS" BASIS WITHOUT WARRANTIES,
  18:./libraries/drivers/src/at32f413_tmr.c ****   * GUARANTEES OR REPRESENTATIONS OF ANY KIND. ARTERY EXPRESSLY DISCLAIMS,
  19:./libraries/drivers/src/at32f413_tmr.c ****   * TO THE FULLEST EXTENT PERMITTED BY LAW, ALL EXPRESS, IMPLIED OR
  20:./libraries/drivers/src/at32f413_tmr.c ****   * STATUTORY OR OTHER WARRANTIES, GUARANTEES OR REPRESENTATIONS,
  21:./libraries/drivers/src/at32f413_tmr.c ****   * INCLUDING BUT NOT LIMITED TO, THE IMPLIED WARRANTIES OF MERCHANTABILITY,
  22:./libraries/drivers/src/at32f413_tmr.c ****   * FITNESS FOR A PARTICULAR PURPOSE, OR NON-INFRINGEMENT.
  23:./libraries/drivers/src/at32f413_tmr.c ****   *
  24:./libraries/drivers/src/at32f413_tmr.c ****   **************************************************************************
  25:./libraries/drivers/src/at32f413_tmr.c ****   */
  26:./libraries/drivers/src/at32f413_tmr.c **** 
  27:./libraries/drivers/src/at32f413_tmr.c **** #include "at32f413_conf.h"
  28:./libraries/drivers/src/at32f413_tmr.c **** 
  29:./libraries/drivers/src/at32f413_tmr.c **** /** @addtogroup AT32F413_periph_driver
ARM GAS  C:\Users\J\AppData\Local\Temp\ccrWFtxe.s 			page 2


  30:./libraries/drivers/src/at32f413_tmr.c ****   * @{
  31:./libraries/drivers/src/at32f413_tmr.c ****   */
  32:./libraries/drivers/src/at32f413_tmr.c **** 
  33:./libraries/drivers/src/at32f413_tmr.c **** /** @defgroup TMR
  34:./libraries/drivers/src/at32f413_tmr.c ****   * @brief TMR driver modules
  35:./libraries/drivers/src/at32f413_tmr.c ****   * @{
  36:./libraries/drivers/src/at32f413_tmr.c ****   */
  37:./libraries/drivers/src/at32f413_tmr.c **** 
  38:./libraries/drivers/src/at32f413_tmr.c **** #ifdef TMR_MODULE_ENABLED
  39:./libraries/drivers/src/at32f413_tmr.c **** 
  40:./libraries/drivers/src/at32f413_tmr.c **** /** @defgroup TMR_private_functions
  41:./libraries/drivers/src/at32f413_tmr.c ****   * @{
  42:./libraries/drivers/src/at32f413_tmr.c ****   */
  43:./libraries/drivers/src/at32f413_tmr.c **** 
  44:./libraries/drivers/src/at32f413_tmr.c **** /**
  45:./libraries/drivers/src/at32f413_tmr.c ****   * @brief  tmr reset by crm reset register
  46:./libraries/drivers/src/at32f413_tmr.c ****   * @param  tmr_x: select the tmr peripheral.
  47:./libraries/drivers/src/at32f413_tmr.c ****   *         this parameter can be one of the following values:
  48:./libraries/drivers/src/at32f413_tmr.c ****   *         TMR1, TMR2, TMR3, TMR4, TMR5, TMR8, TMR9, TMR10,
  49:./libraries/drivers/src/at32f413_tmr.c ****   *         TMR11
  50:./libraries/drivers/src/at32f413_tmr.c ****   * @retval none
  51:./libraries/drivers/src/at32f413_tmr.c ****   */
  52:./libraries/drivers/src/at32f413_tmr.c **** void tmr_reset(tmr_type *tmr_x)
  53:./libraries/drivers/src/at32f413_tmr.c **** {
  30              		.loc 1 53 1 view -0
  31              		.cfi_startproc
  32              		@ args = 0, pretend = 0, frame = 0
  33              		@ frame_needed = 0, uses_anonymous_args = 0
  34              		.loc 1 53 1 is_stmt 0 view .LVU1
  35 0000 10B5     		push	{r4, lr}
  36              	.LCFI0:
  37              		.cfi_def_cfa_offset 8
  38              		.cfi_offset 4, -8
  39              		.cfi_offset 14, -4
  54:./libraries/drivers/src/at32f413_tmr.c ****   if(tmr_x == TMR1)
  40              		.loc 1 54 3 is_stmt 1 view .LVU2
  41              		.loc 1 54 5 is_stmt 0 view .LVU3
  42 0002 3B4B     		ldr	r3, .L21
  43 0004 9842     		cmp	r0, r3
  44 0006 18D0     		beq	.L12
  55:./libraries/drivers/src/at32f413_tmr.c ****   {
  56:./libraries/drivers/src/at32f413_tmr.c ****     crm_periph_reset(CRM_TMR1_PERIPH_RESET, TRUE);
  57:./libraries/drivers/src/at32f413_tmr.c ****     crm_periph_reset(CRM_TMR1_PERIPH_RESET, FALSE);
  58:./libraries/drivers/src/at32f413_tmr.c ****   }
  59:./libraries/drivers/src/at32f413_tmr.c ****   else if(tmr_x == TMR2)
  45              		.loc 1 59 8 is_stmt 1 view .LVU4
  46              		.loc 1 59 10 is_stmt 0 view .LVU5
  47 0008 B0F1804F 		cmp	r0, #1073741824
  48 000c 1FD0     		beq	.L13
  60:./libraries/drivers/src/at32f413_tmr.c ****   {
  61:./libraries/drivers/src/at32f413_tmr.c ****     crm_periph_reset(CRM_TMR2_PERIPH_RESET, TRUE);
  62:./libraries/drivers/src/at32f413_tmr.c ****     crm_periph_reset(CRM_TMR2_PERIPH_RESET, FALSE);
  63:./libraries/drivers/src/at32f413_tmr.c ****   }
  64:./libraries/drivers/src/at32f413_tmr.c ****   else if(tmr_x == TMR3)
  49              		.loc 1 64 8 is_stmt 1 view .LVU6
  50              		.loc 1 64 10 is_stmt 0 view .LVU7
  51 000e 394B     		ldr	r3, .L21+4
ARM GAS  C:\Users\J\AppData\Local\Temp\ccrWFtxe.s 			page 3


  52 0010 9842     		cmp	r0, r3
  53 0012 27D0     		beq	.L14
  65:./libraries/drivers/src/at32f413_tmr.c ****   {
  66:./libraries/drivers/src/at32f413_tmr.c ****     crm_periph_reset(CRM_TMR3_PERIPH_RESET, TRUE);
  67:./libraries/drivers/src/at32f413_tmr.c ****     crm_periph_reset(CRM_TMR3_PERIPH_RESET, FALSE);
  68:./libraries/drivers/src/at32f413_tmr.c ****   }
  69:./libraries/drivers/src/at32f413_tmr.c ****   else if(tmr_x == TMR4)
  54              		.loc 1 69 8 is_stmt 1 view .LVU8
  55              		.loc 1 69 10 is_stmt 0 view .LVU9
  56 0014 384B     		ldr	r3, .L21+8
  57 0016 9842     		cmp	r0, r3
  58 0018 2ED0     		beq	.L15
  70:./libraries/drivers/src/at32f413_tmr.c ****   {
  71:./libraries/drivers/src/at32f413_tmr.c ****     crm_periph_reset(CRM_TMR4_PERIPH_RESET, TRUE);
  72:./libraries/drivers/src/at32f413_tmr.c ****     crm_periph_reset(CRM_TMR4_PERIPH_RESET, FALSE);
  73:./libraries/drivers/src/at32f413_tmr.c ****   }
  74:./libraries/drivers/src/at32f413_tmr.c ****   else if(tmr_x == TMR5)
  59              		.loc 1 74 8 is_stmt 1 view .LVU10
  60              		.loc 1 74 10 is_stmt 0 view .LVU11
  61 001a 384B     		ldr	r3, .L21+12
  62 001c 9842     		cmp	r0, r3
  63 001e 35D0     		beq	.L16
  75:./libraries/drivers/src/at32f413_tmr.c ****   {
  76:./libraries/drivers/src/at32f413_tmr.c ****     crm_periph_reset(CRM_TMR5_PERIPH_RESET, TRUE);
  77:./libraries/drivers/src/at32f413_tmr.c ****     crm_periph_reset(CRM_TMR5_PERIPH_RESET, FALSE);
  78:./libraries/drivers/src/at32f413_tmr.c ****   }
  79:./libraries/drivers/src/at32f413_tmr.c ****   else if(tmr_x == TMR8)
  64              		.loc 1 79 8 is_stmt 1 view .LVU12
  65              		.loc 1 79 10 is_stmt 0 view .LVU13
  66 0020 374B     		ldr	r3, .L21+16
  67 0022 9842     		cmp	r0, r3
  68 0024 3CD0     		beq	.L17
  80:./libraries/drivers/src/at32f413_tmr.c ****   {
  81:./libraries/drivers/src/at32f413_tmr.c ****     crm_periph_reset(CRM_TMR8_PERIPH_RESET, TRUE);
  82:./libraries/drivers/src/at32f413_tmr.c ****     crm_periph_reset(CRM_TMR8_PERIPH_RESET, FALSE);
  83:./libraries/drivers/src/at32f413_tmr.c ****   }
  84:./libraries/drivers/src/at32f413_tmr.c ****   else if(tmr_x == TMR9)
  69              		.loc 1 84 8 is_stmt 1 view .LVU14
  70              		.loc 1 84 10 is_stmt 0 view .LVU15
  71 0026 374B     		ldr	r3, .L21+20
  72 0028 9842     		cmp	r0, r3
  73 002a 43D0     		beq	.L18
  85:./libraries/drivers/src/at32f413_tmr.c ****   {
  86:./libraries/drivers/src/at32f413_tmr.c ****     crm_periph_reset(CRM_TMR9_PERIPH_RESET, TRUE);
  87:./libraries/drivers/src/at32f413_tmr.c ****     crm_periph_reset(CRM_TMR9_PERIPH_RESET, FALSE);
  88:./libraries/drivers/src/at32f413_tmr.c ****   }
  89:./libraries/drivers/src/at32f413_tmr.c ****   else if(tmr_x == TMR10)
  74              		.loc 1 89 8 is_stmt 1 view .LVU16
  75              		.loc 1 89 10 is_stmt 0 view .LVU17
  76 002c 364B     		ldr	r3, .L21+24
  77 002e 9842     		cmp	r0, r3
  78 0030 4AD0     		beq	.L19
  90:./libraries/drivers/src/at32f413_tmr.c ****   {
  91:./libraries/drivers/src/at32f413_tmr.c ****     crm_periph_reset(CRM_TMR10_PERIPH_RESET, TRUE);
  92:./libraries/drivers/src/at32f413_tmr.c ****     crm_periph_reset(CRM_TMR10_PERIPH_RESET, FALSE);
  93:./libraries/drivers/src/at32f413_tmr.c ****   }
  94:./libraries/drivers/src/at32f413_tmr.c ****   else if(tmr_x == TMR11)
ARM GAS  C:\Users\J\AppData\Local\Temp\ccrWFtxe.s 			page 4


  79              		.loc 1 94 8 is_stmt 1 view .LVU18
  80              		.loc 1 94 10 is_stmt 0 view .LVU19
  81 0032 364B     		ldr	r3, .L21+28
  82 0034 9842     		cmp	r0, r3
  83 0036 51D0     		beq	.L20
  84              	.LVL1:
  85              	.L1:
  95:./libraries/drivers/src/at32f413_tmr.c ****   {
  96:./libraries/drivers/src/at32f413_tmr.c ****     crm_periph_reset(CRM_TMR11_PERIPH_RESET, TRUE);
  97:./libraries/drivers/src/at32f413_tmr.c ****     crm_periph_reset(CRM_TMR11_PERIPH_RESET, FALSE);
  98:./libraries/drivers/src/at32f413_tmr.c ****   }
  99:./libraries/drivers/src/at32f413_tmr.c **** }
  86              		.loc 1 99 1 view .LVU20
  87 0038 10BD     		pop	{r4, pc}
  88              	.LVL2:
  89              	.L12:
  56:./libraries/drivers/src/at32f413_tmr.c ****     crm_periph_reset(CRM_TMR1_PERIPH_RESET, FALSE);
  90              		.loc 1 56 5 is_stmt 1 view .LVU21
  91 003a 354C     		ldr	r4, .L21+32
  92 003c 0121     		movs	r1, #1
  93 003e 2046     		mov	r0, r4
  94              	.LVL3:
  56:./libraries/drivers/src/at32f413_tmr.c ****     crm_periph_reset(CRM_TMR1_PERIPH_RESET, FALSE);
  95              		.loc 1 56 5 is_stmt 0 view .LVU22
  96 0040 FFF7FEFF 		bl	crm_periph_reset
  97              	.LVL4:
  57:./libraries/drivers/src/at32f413_tmr.c ****   }
  98              		.loc 1 57 5 is_stmt 1 view .LVU23
  99 0044 0021     		movs	r1, #0
 100 0046 2046     		mov	r0, r4
 101 0048 FFF7FEFF 		bl	crm_periph_reset
 102              	.LVL5:
 103 004c F4E7     		b	.L1
 104              	.LVL6:
 105              	.L13:
  61:./libraries/drivers/src/at32f413_tmr.c ****     crm_periph_reset(CRM_TMR2_PERIPH_RESET, FALSE);
 106              		.loc 1 61 5 view .LVU24
 107 004e 0121     		movs	r1, #1
 108 0050 4FF48010 		mov	r0, #1048576
 109              	.LVL7:
  61:./libraries/drivers/src/at32f413_tmr.c ****     crm_periph_reset(CRM_TMR2_PERIPH_RESET, FALSE);
 110              		.loc 1 61 5 is_stmt 0 view .LVU25
 111 0054 FFF7FEFF 		bl	crm_periph_reset
 112              	.LVL8:
  62:./libraries/drivers/src/at32f413_tmr.c ****   }
 113              		.loc 1 62 5 is_stmt 1 view .LVU26
 114 0058 0021     		movs	r1, #0
 115 005a 4FF48010 		mov	r0, #1048576
 116 005e FFF7FEFF 		bl	crm_periph_reset
 117              	.LVL9:
 118 0062 E9E7     		b	.L1
 119              	.LVL10:
 120              	.L14:
  66:./libraries/drivers/src/at32f413_tmr.c ****     crm_periph_reset(CRM_TMR3_PERIPH_RESET, FALSE);
 121              		.loc 1 66 5 view .LVU27
 122 0064 2B4C     		ldr	r4, .L21+36
 123 0066 0121     		movs	r1, #1
ARM GAS  C:\Users\J\AppData\Local\Temp\ccrWFtxe.s 			page 5


 124 0068 2046     		mov	r0, r4
 125              	.LVL11:
  66:./libraries/drivers/src/at32f413_tmr.c ****     crm_periph_reset(CRM_TMR3_PERIPH_RESET, FALSE);
 126              		.loc 1 66 5 is_stmt 0 view .LVU28
 127 006a FFF7FEFF 		bl	crm_periph_reset
 128              	.LVL12:
  67:./libraries/drivers/src/at32f413_tmr.c ****   }
 129              		.loc 1 67 5 is_stmt 1 view .LVU29
 130 006e 0021     		movs	r1, #0
 131 0070 2046     		mov	r0, r4
 132 0072 FFF7FEFF 		bl	crm_periph_reset
 133              	.LVL13:
 134 0076 DFE7     		b	.L1
 135              	.LVL14:
 136              	.L15:
  71:./libraries/drivers/src/at32f413_tmr.c ****     crm_periph_reset(CRM_TMR4_PERIPH_RESET, FALSE);
 137              		.loc 1 71 5 view .LVU30
 138 0078 274C     		ldr	r4, .L21+40
 139 007a 0121     		movs	r1, #1
 140 007c 2046     		mov	r0, r4
 141              	.LVL15:
  71:./libraries/drivers/src/at32f413_tmr.c ****     crm_periph_reset(CRM_TMR4_PERIPH_RESET, FALSE);
 142              		.loc 1 71 5 is_stmt 0 view .LVU31
 143 007e FFF7FEFF 		bl	crm_periph_reset
 144              	.LVL16:
  72:./libraries/drivers/src/at32f413_tmr.c ****   }
 145              		.loc 1 72 5 is_stmt 1 view .LVU32
 146 0082 0021     		movs	r1, #0
 147 0084 2046     		mov	r0, r4
 148 0086 FFF7FEFF 		bl	crm_periph_reset
 149              	.LVL17:
 150 008a D5E7     		b	.L1
 151              	.LVL18:
 152              	.L16:
  76:./libraries/drivers/src/at32f413_tmr.c ****     crm_periph_reset(CRM_TMR5_PERIPH_RESET, FALSE);
 153              		.loc 1 76 5 view .LVU33
 154 008c 234C     		ldr	r4, .L21+44
 155 008e 0121     		movs	r1, #1
 156 0090 2046     		mov	r0, r4
 157              	.LVL19:
  76:./libraries/drivers/src/at32f413_tmr.c ****     crm_periph_reset(CRM_TMR5_PERIPH_RESET, FALSE);
 158              		.loc 1 76 5 is_stmt 0 view .LVU34
 159 0092 FFF7FEFF 		bl	crm_periph_reset
 160              	.LVL20:
  77:./libraries/drivers/src/at32f413_tmr.c ****   }
 161              		.loc 1 77 5 is_stmt 1 view .LVU35
 162 0096 0021     		movs	r1, #0
 163 0098 2046     		mov	r0, r4
 164 009a FFF7FEFF 		bl	crm_periph_reset
 165              	.LVL21:
 166 009e CBE7     		b	.L1
 167              	.LVL22:
 168              	.L17:
  81:./libraries/drivers/src/at32f413_tmr.c ****     crm_periph_reset(CRM_TMR8_PERIPH_RESET, FALSE);
 169              		.loc 1 81 5 view .LVU36
 170 00a0 1F4C     		ldr	r4, .L21+48
 171 00a2 0121     		movs	r1, #1
ARM GAS  C:\Users\J\AppData\Local\Temp\ccrWFtxe.s 			page 6


 172 00a4 2046     		mov	r0, r4
 173              	.LVL23:
  81:./libraries/drivers/src/at32f413_tmr.c ****     crm_periph_reset(CRM_TMR8_PERIPH_RESET, FALSE);
 174              		.loc 1 81 5 is_stmt 0 view .LVU37
 175 00a6 FFF7FEFF 		bl	crm_periph_reset
 176              	.LVL24:
  82:./libraries/drivers/src/at32f413_tmr.c ****   }
 177              		.loc 1 82 5 is_stmt 1 view .LVU38
 178 00aa 0021     		movs	r1, #0
 179 00ac 2046     		mov	r0, r4
 180 00ae FFF7FEFF 		bl	crm_periph_reset
 181              	.LVL25:
 182 00b2 C1E7     		b	.L1
 183              	.LVL26:
 184              	.L18:
  86:./libraries/drivers/src/at32f413_tmr.c ****     crm_periph_reset(CRM_TMR9_PERIPH_RESET, FALSE);
 185              		.loc 1 86 5 view .LVU39
 186 00b4 1B4C     		ldr	r4, .L21+52
 187 00b6 0121     		movs	r1, #1
 188 00b8 2046     		mov	r0, r4
 189              	.LVL27:
  86:./libraries/drivers/src/at32f413_tmr.c ****     crm_periph_reset(CRM_TMR9_PERIPH_RESET, FALSE);
 190              		.loc 1 86 5 is_stmt 0 view .LVU40
 191 00ba FFF7FEFF 		bl	crm_periph_reset
 192              	.LVL28:
  87:./libraries/drivers/src/at32f413_tmr.c ****   }
 193              		.loc 1 87 5 is_stmt 1 view .LVU41
 194 00be 0021     		movs	r1, #0
 195 00c0 2046     		mov	r0, r4
 196 00c2 FFF7FEFF 		bl	crm_periph_reset
 197              	.LVL29:
 198 00c6 B7E7     		b	.L1
 199              	.LVL30:
 200              	.L19:
  91:./libraries/drivers/src/at32f413_tmr.c ****     crm_periph_reset(CRM_TMR10_PERIPH_RESET, FALSE);
 201              		.loc 1 91 5 view .LVU42
 202 00c8 174C     		ldr	r4, .L21+56
 203 00ca 0121     		movs	r1, #1
 204 00cc 2046     		mov	r0, r4
 205              	.LVL31:
  91:./libraries/drivers/src/at32f413_tmr.c ****     crm_periph_reset(CRM_TMR10_PERIPH_RESET, FALSE);
 206              		.loc 1 91 5 is_stmt 0 view .LVU43
 207 00ce FFF7FEFF 		bl	crm_periph_reset
 208              	.LVL32:
  92:./libraries/drivers/src/at32f413_tmr.c ****   }
 209              		.loc 1 92 5 is_stmt 1 view .LVU44
 210 00d2 0021     		movs	r1, #0
 211 00d4 2046     		mov	r0, r4
 212 00d6 FFF7FEFF 		bl	crm_periph_reset
 213              	.LVL33:
 214 00da ADE7     		b	.L1
 215              	.LVL34:
 216              	.L20:
  96:./libraries/drivers/src/at32f413_tmr.c ****     crm_periph_reset(CRM_TMR11_PERIPH_RESET, FALSE);
 217              		.loc 1 96 5 view .LVU45
 218 00dc 134C     		ldr	r4, .L21+60
 219 00de 0121     		movs	r1, #1
ARM GAS  C:\Users\J\AppData\Local\Temp\ccrWFtxe.s 			page 7


 220 00e0 2046     		mov	r0, r4
 221              	.LVL35:
  96:./libraries/drivers/src/at32f413_tmr.c ****     crm_periph_reset(CRM_TMR11_PERIPH_RESET, FALSE);
 222              		.loc 1 96 5 is_stmt 0 view .LVU46
 223 00e2 FFF7FEFF 		bl	crm_periph_reset
 224              	.LVL36:
  97:./libraries/drivers/src/at32f413_tmr.c ****   }
 225              		.loc 1 97 5 is_stmt 1 view .LVU47
 226 00e6 0021     		movs	r1, #0
 227 00e8 2046     		mov	r0, r4
 228 00ea FFF7FEFF 		bl	crm_periph_reset
 229              	.LVL37:
 230              		.loc 1 99 1 is_stmt 0 view .LVU48
 231 00ee A3E7     		b	.L1
 232              	.L22:
 233              		.align	2
 234              	.L21:
 235 00f0 002C0140 		.word	1073818624
 236 00f4 00040040 		.word	1073742848
 237 00f8 00080040 		.word	1073743872
 238 00fc 000C0040 		.word	1073744896
 239 0100 00340140 		.word	1073820672
 240 0104 004C0140 		.word	1073826816
 241 0108 00500140 		.word	1073827840
 242 010c 00540140 		.word	1073828864
 243 0110 0B000C00 		.word	786443
 244 0114 01001000 		.word	1048577
 245 0118 02001000 		.word	1048578
 246 011c 03001000 		.word	1048579
 247 0120 0D000C00 		.word	786445
 248 0124 13000C00 		.word	786451
 249 0128 14000C00 		.word	786452
 250 012c 15000C00 		.word	786453
 251              		.cfi_endproc
 252              	.LFE133:
 254              		.section	.text.tmr_counter_enable,"ax",%progbits
 255              		.align	1
 256              		.global	tmr_counter_enable
 257              		.syntax unified
 258              		.thumb
 259              		.thumb_func
 260              		.fpu fpv4-sp-d16
 262              	tmr_counter_enable:
 263              	.LVL38:
 264              	.LFB134:
 100:./libraries/drivers/src/at32f413_tmr.c **** 
 101:./libraries/drivers/src/at32f413_tmr.c **** /**
 102:./libraries/drivers/src/at32f413_tmr.c ****   * @brief  enable or disable tmr counter
 103:./libraries/drivers/src/at32f413_tmr.c ****   * @param  tmr_x: select the tmr peripheral.
 104:./libraries/drivers/src/at32f413_tmr.c ****   *         this parameter can be one of the following values:
 105:./libraries/drivers/src/at32f413_tmr.c ****   *         TMR1, TMR2, TMR3, TMR4, TMR5, TMR8, TMR9, TMR10,
 106:./libraries/drivers/src/at32f413_tmr.c ****   *         TMR11
 107:./libraries/drivers/src/at32f413_tmr.c ****   * @param  new_state (TRUE or FALSE)
 108:./libraries/drivers/src/at32f413_tmr.c ****   * @retval none
 109:./libraries/drivers/src/at32f413_tmr.c ****   */
 110:./libraries/drivers/src/at32f413_tmr.c **** void tmr_counter_enable(tmr_type *tmr_x, confirm_state new_state)
 111:./libraries/drivers/src/at32f413_tmr.c **** {
ARM GAS  C:\Users\J\AppData\Local\Temp\ccrWFtxe.s 			page 8


 265              		.loc 1 111 1 is_stmt 1 view -0
 266              		.cfi_startproc
 267              		@ args = 0, pretend = 0, frame = 0
 268              		@ frame_needed = 0, uses_anonymous_args = 0
 269              		@ link register save eliminated.
 112:./libraries/drivers/src/at32f413_tmr.c ****   /* tmr counter enable  */
 113:./libraries/drivers/src/at32f413_tmr.c ****   tmr_x->ctrl1_bit.tmren = new_state;
 270              		.loc 1 113 3 view .LVU50
 271              		.loc 1 113 26 is_stmt 0 view .LVU51
 272 0000 0368     		ldr	r3, [r0]
 273 0002 61F30003 		bfi	r3, r1, #0, #1
 274 0006 0360     		str	r3, [r0]
 114:./libraries/drivers/src/at32f413_tmr.c **** }
 275              		.loc 1 114 1 view .LVU52
 276 0008 7047     		bx	lr
 277              		.cfi_endproc
 278              	.LFE134:
 280              		.section	.text.tmr_output_default_para_init,"ax",%progbits
 281              		.align	1
 282              		.global	tmr_output_default_para_init
 283              		.syntax unified
 284              		.thumb
 285              		.thumb_func
 286              		.fpu fpv4-sp-d16
 288              	tmr_output_default_para_init:
 289              	.LVL39:
 290              	.LFB135:
 115:./libraries/drivers/src/at32f413_tmr.c **** 
 116:./libraries/drivers/src/at32f413_tmr.c **** /**
 117:./libraries/drivers/src/at32f413_tmr.c ****   * @brief  init tmr output default para
 118:./libraries/drivers/src/at32f413_tmr.c ****   * @param  tmr_output_struct
 119:./libraries/drivers/src/at32f413_tmr.c ****   *         - to the structure of tmr_output_config_type
 120:./libraries/drivers/src/at32f413_tmr.c ****   * @retval none
 121:./libraries/drivers/src/at32f413_tmr.c ****   */
 122:./libraries/drivers/src/at32f413_tmr.c **** void tmr_output_default_para_init(tmr_output_config_type *tmr_output_struct)
 123:./libraries/drivers/src/at32f413_tmr.c **** {
 291              		.loc 1 123 1 is_stmt 1 view -0
 292              		.cfi_startproc
 293              		@ args = 0, pretend = 0, frame = 0
 294              		@ frame_needed = 0, uses_anonymous_args = 0
 295              		@ link register save eliminated.
 124:./libraries/drivers/src/at32f413_tmr.c ****   tmr_output_struct->oc_mode = TMR_OUTPUT_CONTROL_OFF;
 296              		.loc 1 124 3 view .LVU54
 297              		.loc 1 124 30 is_stmt 0 view .LVU55
 298 0000 0023     		movs	r3, #0
 299 0002 0370     		strb	r3, [r0]
 125:./libraries/drivers/src/at32f413_tmr.c ****   tmr_output_struct->oc_idle_state = FALSE;
 300              		.loc 1 125 3 is_stmt 1 view .LVU56
 301              		.loc 1 125 36 is_stmt 0 view .LVU57
 302 0004 4370     		strb	r3, [r0, #1]
 126:./libraries/drivers/src/at32f413_tmr.c ****   tmr_output_struct->occ_idle_state = FALSE;
 303              		.loc 1 126 3 is_stmt 1 view .LVU58
 304              		.loc 1 126 37 is_stmt 0 view .LVU59
 305 0006 8370     		strb	r3, [r0, #2]
 127:./libraries/drivers/src/at32f413_tmr.c ****   tmr_output_struct->oc_polarity = TMR_OUTPUT_ACTIVE_HIGH;
 306              		.loc 1 127 3 is_stmt 1 view .LVU60
 307              		.loc 1 127 34 is_stmt 0 view .LVU61
ARM GAS  C:\Users\J\AppData\Local\Temp\ccrWFtxe.s 			page 9


 308 0008 C370     		strb	r3, [r0, #3]
 128:./libraries/drivers/src/at32f413_tmr.c ****   tmr_output_struct->occ_polarity = TMR_OUTPUT_ACTIVE_HIGH;
 309              		.loc 1 128 3 is_stmt 1 view .LVU62
 310              		.loc 1 128 35 is_stmt 0 view .LVU63
 311 000a 0371     		strb	r3, [r0, #4]
 129:./libraries/drivers/src/at32f413_tmr.c ****   tmr_output_struct->oc_output_state = FALSE;
 312              		.loc 1 129 3 is_stmt 1 view .LVU64
 313              		.loc 1 129 38 is_stmt 0 view .LVU65
 314 000c 4371     		strb	r3, [r0, #5]
 130:./libraries/drivers/src/at32f413_tmr.c ****   tmr_output_struct->occ_output_state = FALSE;
 315              		.loc 1 130 3 is_stmt 1 view .LVU66
 316              		.loc 1 130 39 is_stmt 0 view .LVU67
 317 000e 8371     		strb	r3, [r0, #6]
 131:./libraries/drivers/src/at32f413_tmr.c **** }
 318              		.loc 1 131 1 view .LVU68
 319 0010 7047     		bx	lr
 320              		.cfi_endproc
 321              	.LFE135:
 323              		.section	.text.tmr_input_default_para_init,"ax",%progbits
 324              		.align	1
 325              		.global	tmr_input_default_para_init
 326              		.syntax unified
 327              		.thumb
 328              		.thumb_func
 329              		.fpu fpv4-sp-d16
 331              	tmr_input_default_para_init:
 332              	.LVL40:
 333              	.LFB136:
 132:./libraries/drivers/src/at32f413_tmr.c **** 
 133:./libraries/drivers/src/at32f413_tmr.c **** /**
 134:./libraries/drivers/src/at32f413_tmr.c ****   * @brief  init tmr input default para
 135:./libraries/drivers/src/at32f413_tmr.c ****   * @param  tmr_input_struct
 136:./libraries/drivers/src/at32f413_tmr.c ****   *         - to the structure of tmr_input_config_type
 137:./libraries/drivers/src/at32f413_tmr.c ****   * @retval none
 138:./libraries/drivers/src/at32f413_tmr.c ****   */
 139:./libraries/drivers/src/at32f413_tmr.c **** void tmr_input_default_para_init(tmr_input_config_type *tmr_input_struct)
 140:./libraries/drivers/src/at32f413_tmr.c **** {
 334              		.loc 1 140 1 is_stmt 1 view -0
 335              		.cfi_startproc
 336              		@ args = 0, pretend = 0, frame = 0
 337              		@ frame_needed = 0, uses_anonymous_args = 0
 338              		@ link register save eliminated.
 141:./libraries/drivers/src/at32f413_tmr.c ****   tmr_input_struct->input_channel_select = TMR_SELECT_CHANNEL_1;
 339              		.loc 1 141 3 view .LVU70
 340              		.loc 1 141 42 is_stmt 0 view .LVU71
 341 0000 0023     		movs	r3, #0
 342 0002 0370     		strb	r3, [r0]
 142:./libraries/drivers/src/at32f413_tmr.c ****   tmr_input_struct->input_polarity_select = TMR_INPUT_RISING_EDGE;
 343              		.loc 1 142 3 is_stmt 1 view .LVU72
 344              		.loc 1 142 43 is_stmt 0 view .LVU73
 345 0004 4370     		strb	r3, [r0, #1]
 143:./libraries/drivers/src/at32f413_tmr.c ****   tmr_input_struct->input_mapped_select = TMR_CC_CHANNEL_MAPPED_DIRECT;
 346              		.loc 1 143 3 is_stmt 1 view .LVU74
 347              		.loc 1 143 41 is_stmt 0 view .LVU75
 348 0006 0122     		movs	r2, #1
 349 0008 8270     		strb	r2, [r0, #2]
 144:./libraries/drivers/src/at32f413_tmr.c ****   tmr_input_struct->input_filter_value = 0x0;
ARM GAS  C:\Users\J\AppData\Local\Temp\ccrWFtxe.s 			page 10


 350              		.loc 1 144 3 is_stmt 1 view .LVU76
 351              		.loc 1 144 40 is_stmt 0 view .LVU77
 352 000a C370     		strb	r3, [r0, #3]
 145:./libraries/drivers/src/at32f413_tmr.c **** }
 353              		.loc 1 145 1 view .LVU78
 354 000c 7047     		bx	lr
 355              		.cfi_endproc
 356              	.LFE136:
 358              		.section	.text.tmr_brkdt_default_para_init,"ax",%progbits
 359              		.align	1
 360              		.global	tmr_brkdt_default_para_init
 361              		.syntax unified
 362              		.thumb
 363              		.thumb_func
 364              		.fpu fpv4-sp-d16
 366              	tmr_brkdt_default_para_init:
 367              	.LVL41:
 368              	.LFB137:
 146:./libraries/drivers/src/at32f413_tmr.c **** 
 147:./libraries/drivers/src/at32f413_tmr.c **** /**
 148:./libraries/drivers/src/at32f413_tmr.c ****   * @brief  init tmr brkdt default para
 149:./libraries/drivers/src/at32f413_tmr.c ****   * @param  tmr_brkdt_struct
 150:./libraries/drivers/src/at32f413_tmr.c ****   *         - to the structure of tmr_brkdt_config_type
 151:./libraries/drivers/src/at32f413_tmr.c ****   * @retval none
 152:./libraries/drivers/src/at32f413_tmr.c ****   */
 153:./libraries/drivers/src/at32f413_tmr.c **** void tmr_brkdt_default_para_init(tmr_brkdt_config_type *tmr_brkdt_struct)
 154:./libraries/drivers/src/at32f413_tmr.c **** {
 369              		.loc 1 154 1 is_stmt 1 view -0
 370              		.cfi_startproc
 371              		@ args = 0, pretend = 0, frame = 0
 372              		@ frame_needed = 0, uses_anonymous_args = 0
 373              		@ link register save eliminated.
 155:./libraries/drivers/src/at32f413_tmr.c ****   tmr_brkdt_struct->deadtime = 0x0;
 374              		.loc 1 155 3 view .LVU80
 375              		.loc 1 155 30 is_stmt 0 view .LVU81
 376 0000 0023     		movs	r3, #0
 377 0002 0370     		strb	r3, [r0]
 156:./libraries/drivers/src/at32f413_tmr.c ****   tmr_brkdt_struct->brk_polarity = TMR_BRK_INPUT_ACTIVE_LOW;
 378              		.loc 1 156 3 is_stmt 1 view .LVU82
 379              		.loc 1 156 34 is_stmt 0 view .LVU83
 380 0004 4370     		strb	r3, [r0, #1]
 157:./libraries/drivers/src/at32f413_tmr.c ****   tmr_brkdt_struct->wp_level = TMR_WP_OFF;
 381              		.loc 1 157 3 is_stmt 1 view .LVU84
 382              		.loc 1 157 30 is_stmt 0 view .LVU85
 383 0006 8370     		strb	r3, [r0, #2]
 158:./libraries/drivers/src/at32f413_tmr.c ****   tmr_brkdt_struct->auto_output_enable = FALSE ;
 384              		.loc 1 158 3 is_stmt 1 view .LVU86
 385              		.loc 1 158 40 is_stmt 0 view .LVU87
 386 0008 C370     		strb	r3, [r0, #3]
 159:./libraries/drivers/src/at32f413_tmr.c ****   tmr_brkdt_struct->fcsoen_state = FALSE ;
 387              		.loc 1 159 3 is_stmt 1 view .LVU88
 388              		.loc 1 159 34 is_stmt 0 view .LVU89
 389 000a 0371     		strb	r3, [r0, #4]
 160:./libraries/drivers/src/at32f413_tmr.c ****   tmr_brkdt_struct->fcsodis_state = FALSE ;
 390              		.loc 1 160 3 is_stmt 1 view .LVU90
 391              		.loc 1 160 35 is_stmt 0 view .LVU91
 392 000c 4371     		strb	r3, [r0, #5]
ARM GAS  C:\Users\J\AppData\Local\Temp\ccrWFtxe.s 			page 11


 161:./libraries/drivers/src/at32f413_tmr.c ****   tmr_brkdt_struct->brk_enable = FALSE ;
 393              		.loc 1 161 3 is_stmt 1 view .LVU92
 394              		.loc 1 161 32 is_stmt 0 view .LVU93
 395 000e 8371     		strb	r3, [r0, #6]
 162:./libraries/drivers/src/at32f413_tmr.c **** }
 396              		.loc 1 162 1 view .LVU94
 397 0010 7047     		bx	lr
 398              		.cfi_endproc
 399              	.LFE137:
 401              		.section	.text.tmr_base_init,"ax",%progbits
 402              		.align	1
 403              		.global	tmr_base_init
 404              		.syntax unified
 405              		.thumb
 406              		.thumb_func
 407              		.fpu fpv4-sp-d16
 409              	tmr_base_init:
 410              	.LVL42:
 411              	.LFB138:
 163:./libraries/drivers/src/at32f413_tmr.c **** 
 164:./libraries/drivers/src/at32f413_tmr.c **** /**
 165:./libraries/drivers/src/at32f413_tmr.c ****   * @brief  init tmr base
 166:./libraries/drivers/src/at32f413_tmr.c ****   * @param  tmr_x: select the tmr peripheral.
 167:./libraries/drivers/src/at32f413_tmr.c ****   *         this parameter can be one of the following values:
 168:./libraries/drivers/src/at32f413_tmr.c ****   *         TMR1, TMR2, TMR3, TMR4, TMR5, TMR8, TMR9, TMR10,
 169:./libraries/drivers/src/at32f413_tmr.c ****   *         TMR11
 170:./libraries/drivers/src/at32f413_tmr.c ****   * @param  tmr_pr (for 16 bit tmr 0x0000~0xFFFF,
 171:./libraries/drivers/src/at32f413_tmr.c ****   *                  for 32 bit tmr 0x0000_0000~0xFFFF_FFFF)
 172:./libraries/drivers/src/at32f413_tmr.c ****   * @param  tmr_div (timer div value:0x0000~0xFFFF)
 173:./libraries/drivers/src/at32f413_tmr.c ****   * @retval none
 174:./libraries/drivers/src/at32f413_tmr.c ****   */
 175:./libraries/drivers/src/at32f413_tmr.c **** void tmr_base_init(tmr_type* tmr_x, uint32_t tmr_pr, uint32_t tmr_div)
 176:./libraries/drivers/src/at32f413_tmr.c **** {
 412              		.loc 1 176 1 is_stmt 1 view -0
 413              		.cfi_startproc
 414              		@ args = 0, pretend = 0, frame = 0
 415              		@ frame_needed = 0, uses_anonymous_args = 0
 416              		@ link register save eliminated.
 177:./libraries/drivers/src/at32f413_tmr.c ****   /* set the pr value */
 178:./libraries/drivers/src/at32f413_tmr.c ****   tmr_x->pr = tmr_pr;
 417              		.loc 1 178 3 view .LVU96
 418              		.loc 1 178 13 is_stmt 0 view .LVU97
 419 0000 C162     		str	r1, [r0, #44]
 179:./libraries/drivers/src/at32f413_tmr.c **** 
 180:./libraries/drivers/src/at32f413_tmr.c ****   /* set the div value */
 181:./libraries/drivers/src/at32f413_tmr.c ****   tmr_x->div = tmr_div;
 420              		.loc 1 181 3 is_stmt 1 view .LVU98
 421              		.loc 1 181 14 is_stmt 0 view .LVU99
 422 0002 8262     		str	r2, [r0, #40]
 182:./libraries/drivers/src/at32f413_tmr.c **** 
 183:./libraries/drivers/src/at32f413_tmr.c ****   /* trigger the overflow event to immediately reload pr value and div value */
 184:./libraries/drivers/src/at32f413_tmr.c ****   tmr_x->swevt_bit.ovfswtr = TRUE;
 423              		.loc 1 184 3 is_stmt 1 view .LVU100
 424              		.loc 1 184 28 is_stmt 0 view .LVU101
 425 0004 4369     		ldr	r3, [r0, #20]
 426 0006 43F00103 		orr	r3, r3, #1
 427 000a 4361     		str	r3, [r0, #20]
ARM GAS  C:\Users\J\AppData\Local\Temp\ccrWFtxe.s 			page 12


 185:./libraries/drivers/src/at32f413_tmr.c **** }
 428              		.loc 1 185 1 view .LVU102
 429 000c 7047     		bx	lr
 430              		.cfi_endproc
 431              	.LFE138:
 433              		.section	.text.tmr_clock_source_div_set,"ax",%progbits
 434              		.align	1
 435              		.global	tmr_clock_source_div_set
 436              		.syntax unified
 437              		.thumb
 438              		.thumb_func
 439              		.fpu fpv4-sp-d16
 441              	tmr_clock_source_div_set:
 442              	.LVL43:
 443              	.LFB139:
 186:./libraries/drivers/src/at32f413_tmr.c **** 
 187:./libraries/drivers/src/at32f413_tmr.c **** /**
 188:./libraries/drivers/src/at32f413_tmr.c ****   * @brief  set tmr clock source division
 189:./libraries/drivers/src/at32f413_tmr.c ****   * @param  tmr_x: select the tmr peripheral.
 190:./libraries/drivers/src/at32f413_tmr.c ****   *         this parameter can be one of the following values:
 191:./libraries/drivers/src/at32f413_tmr.c ****   *         TMR1, TMR2, TMR3, TMR4, TMR5, TMR8, TMR9, TMR10,
 192:./libraries/drivers/src/at32f413_tmr.c ****   *         TMR11
 193:./libraries/drivers/src/at32f413_tmr.c ****   * @param  tmr_clock_div
 194:./libraries/drivers/src/at32f413_tmr.c ****   *         this parameter can be one of the following values:
 195:./libraries/drivers/src/at32f413_tmr.c ****   *         - TMR_CLOCK_DIV1
 196:./libraries/drivers/src/at32f413_tmr.c ****   *         - TMR_CLOCK_DIV2
 197:./libraries/drivers/src/at32f413_tmr.c ****   *         - TMR_CLOCK_DIV4
 198:./libraries/drivers/src/at32f413_tmr.c ****   * @retval none
 199:./libraries/drivers/src/at32f413_tmr.c ****   */
 200:./libraries/drivers/src/at32f413_tmr.c **** void tmr_clock_source_div_set(tmr_type *tmr_x, tmr_clock_division_type tmr_clock_div)
 201:./libraries/drivers/src/at32f413_tmr.c **** {
 444              		.loc 1 201 1 is_stmt 1 view -0
 445              		.cfi_startproc
 446              		@ args = 0, pretend = 0, frame = 0
 447              		@ frame_needed = 0, uses_anonymous_args = 0
 448              		@ link register save eliminated.
 202:./libraries/drivers/src/at32f413_tmr.c ****   /* set tmr clock source division */
 203:./libraries/drivers/src/at32f413_tmr.c ****   tmr_x->ctrl1_bit.clkdiv = tmr_clock_div;
 449              		.loc 1 203 3 view .LVU104
 450              		.loc 1 203 27 is_stmt 0 view .LVU105
 451 0000 0368     		ldr	r3, [r0]
 452 0002 61F30923 		bfi	r3, r1, #8, #2
 453 0006 0360     		str	r3, [r0]
 204:./libraries/drivers/src/at32f413_tmr.c **** }
 454              		.loc 1 204 1 view .LVU106
 455 0008 7047     		bx	lr
 456              		.cfi_endproc
 457              	.LFE139:
 459              		.section	.text.tmr_cnt_dir_set,"ax",%progbits
 460              		.align	1
 461              		.global	tmr_cnt_dir_set
 462              		.syntax unified
 463              		.thumb
 464              		.thumb_func
 465              		.fpu fpv4-sp-d16
 467              	tmr_cnt_dir_set:
 468              	.LVL44:
ARM GAS  C:\Users\J\AppData\Local\Temp\ccrWFtxe.s 			page 13


 469              	.LFB140:
 205:./libraries/drivers/src/at32f413_tmr.c **** 
 206:./libraries/drivers/src/at32f413_tmr.c **** /**
 207:./libraries/drivers/src/at32f413_tmr.c ****   * @brief  set tmr counter count direction
 208:./libraries/drivers/src/at32f413_tmr.c ****   * @param  tmr_x: select the tmr peripheral.
 209:./libraries/drivers/src/at32f413_tmr.c ****   *         this parameter can be one of the following values:
 210:./libraries/drivers/src/at32f413_tmr.c ****   *         TMR1, TMR2, TMR3, TMR4, TMR5, TMR8, TMR9, TMR10,
 211:./libraries/drivers/src/at32f413_tmr.c ****   *         TMR11
 212:./libraries/drivers/src/at32f413_tmr.c ****   * @param  tmr_cnt_dir
 213:./libraries/drivers/src/at32f413_tmr.c ****   *         this parameter can be one of the following values:
 214:./libraries/drivers/src/at32f413_tmr.c ****   *         - TMR_COUNT_UP
 215:./libraries/drivers/src/at32f413_tmr.c ****   *         - TMR_COUNT_DOWN
 216:./libraries/drivers/src/at32f413_tmr.c ****   *         - TMR_COUNT_TWO_WAY_1
 217:./libraries/drivers/src/at32f413_tmr.c ****   *         - TMR_COUNT_TWO_WAY_2
 218:./libraries/drivers/src/at32f413_tmr.c ****   *         - TMR_COUNT_TWO_WAY_3
 219:./libraries/drivers/src/at32f413_tmr.c ****   * @retval none
 220:./libraries/drivers/src/at32f413_tmr.c ****   */
 221:./libraries/drivers/src/at32f413_tmr.c **** void tmr_cnt_dir_set(tmr_type *tmr_x, tmr_count_mode_type tmr_cnt_dir)
 222:./libraries/drivers/src/at32f413_tmr.c **** {
 470              		.loc 1 222 1 is_stmt 1 view -0
 471              		.cfi_startproc
 472              		@ args = 0, pretend = 0, frame = 0
 473              		@ frame_needed = 0, uses_anonymous_args = 0
 474              		@ link register save eliminated.
 223:./libraries/drivers/src/at32f413_tmr.c ****   /* set the cnt direct */
 224:./libraries/drivers/src/at32f413_tmr.c ****   tmr_x->ctrl1_bit.cnt_dir = tmr_cnt_dir;
 475              		.loc 1 224 3 view .LVU108
 476              		.loc 1 224 28 is_stmt 0 view .LVU109
 477 0000 0368     		ldr	r3, [r0]
 478 0002 61F30613 		bfi	r3, r1, #4, #3
 479 0006 0360     		str	r3, [r0]
 225:./libraries/drivers/src/at32f413_tmr.c **** }
 480              		.loc 1 225 1 view .LVU110
 481 0008 7047     		bx	lr
 482              		.cfi_endproc
 483              	.LFE140:
 485              		.section	.text.tmr_repetition_counter_set,"ax",%progbits
 486              		.align	1
 487              		.global	tmr_repetition_counter_set
 488              		.syntax unified
 489              		.thumb
 490              		.thumb_func
 491              		.fpu fpv4-sp-d16
 493              	tmr_repetition_counter_set:
 494              	.LVL45:
 495              	.LFB141:
 226:./libraries/drivers/src/at32f413_tmr.c **** 
 227:./libraries/drivers/src/at32f413_tmr.c **** /**
 228:./libraries/drivers/src/at32f413_tmr.c ****   * @brief  set the repetition counter register(rpr) value
 229:./libraries/drivers/src/at32f413_tmr.c ****   * @param  tmr_x: select the tmr peripheral.
 230:./libraries/drivers/src/at32f413_tmr.c ****   *         this parameter can be one of the following values:
 231:./libraries/drivers/src/at32f413_tmr.c ****   *         TMR1, TMR8
 232:./libraries/drivers/src/at32f413_tmr.c ****   * @param  tmr_rpr_value (0x00~0xFF)
 233:./libraries/drivers/src/at32f413_tmr.c ****   * @retval none
 234:./libraries/drivers/src/at32f413_tmr.c ****   */
 235:./libraries/drivers/src/at32f413_tmr.c **** void tmr_repetition_counter_set(tmr_type *tmr_x, uint8_t tmr_rpr_value)
 236:./libraries/drivers/src/at32f413_tmr.c **** {
ARM GAS  C:\Users\J\AppData\Local\Temp\ccrWFtxe.s 			page 14


 496              		.loc 1 236 1 is_stmt 1 view -0
 497              		.cfi_startproc
 498              		@ args = 0, pretend = 0, frame = 0
 499              		@ frame_needed = 0, uses_anonymous_args = 0
 500              		@ link register save eliminated.
 237:./libraries/drivers/src/at32f413_tmr.c ****   /* set the repetition counter value */
 238:./libraries/drivers/src/at32f413_tmr.c ****   if((tmr_x == TMR1) || (tmr_x == TMR8))
 501              		.loc 1 238 3 view .LVU112
 502              		.loc 1 238 5 is_stmt 0 view .LVU113
 503 0000 054B     		ldr	r3, .L33
 504 0002 9842     		cmp	r0, r3
 505 0004 03D0     		beq	.L31
 506              		.loc 1 238 22 discriminator 1 view .LVU114
 507 0006 03F50063 		add	r3, r3, #2048
 508 000a 9842     		cmp	r0, r3
 509 000c 03D1     		bne	.L30
 510              	.L31:
 239:./libraries/drivers/src/at32f413_tmr.c **** 
 240:./libraries/drivers/src/at32f413_tmr.c ****   {
 241:./libraries/drivers/src/at32f413_tmr.c ****     tmr_x->rpr_bit.rpr = tmr_rpr_value;
 511              		.loc 1 241 5 is_stmt 1 view .LVU115
 512              		.loc 1 241 24 is_stmt 0 view .LVU116
 513 000e 036B     		ldr	r3, [r0, #48]
 514              	.LVL46:
 515              		.loc 1 241 24 view .LVU117
 516 0010 61F30703 		bfi	r3, r1, #0, #8
 517 0014 0363     		str	r3, [r0, #48]
 518              	.L30:
 242:./libraries/drivers/src/at32f413_tmr.c ****   }
 243:./libraries/drivers/src/at32f413_tmr.c **** }
 519              		.loc 1 243 1 view .LVU118
 520 0016 7047     		bx	lr
 521              	.L34:
 522              		.align	2
 523              	.L33:
 524 0018 002C0140 		.word	1073818624
 525              		.cfi_endproc
 526              	.LFE141:
 528              		.section	.text.tmr_counter_value_set,"ax",%progbits
 529              		.align	1
 530              		.global	tmr_counter_value_set
 531              		.syntax unified
 532              		.thumb
 533              		.thumb_func
 534              		.fpu fpv4-sp-d16
 536              	tmr_counter_value_set:
 537              	.LVL47:
 538              	.LFB142:
 244:./libraries/drivers/src/at32f413_tmr.c **** 
 245:./libraries/drivers/src/at32f413_tmr.c **** /**
 246:./libraries/drivers/src/at32f413_tmr.c ****   * @brief  set tmr counter value
 247:./libraries/drivers/src/at32f413_tmr.c ****   * @param  tmr_x: select the tmr peripheral.
 248:./libraries/drivers/src/at32f413_tmr.c ****   *         this parameter can be one of the following values:
 249:./libraries/drivers/src/at32f413_tmr.c ****   *         TMR1, TMR2, TMR3, TMR4, TMR5, TMR8, TMR9, TMR10,
 250:./libraries/drivers/src/at32f413_tmr.c ****   *         TMR11
 251:./libraries/drivers/src/at32f413_tmr.c ****   * @param  tmr_cnt_value (for 16 bit tmr 0x0000~0xFFFF,
 252:./libraries/drivers/src/at32f413_tmr.c ****   *                        for 32 bit tmr 0x0000_0000~0xFFFF_FFFF)
ARM GAS  C:\Users\J\AppData\Local\Temp\ccrWFtxe.s 			page 15


 253:./libraries/drivers/src/at32f413_tmr.c ****   * @retval none
 254:./libraries/drivers/src/at32f413_tmr.c ****   */
 255:./libraries/drivers/src/at32f413_tmr.c **** void tmr_counter_value_set(tmr_type *tmr_x, uint32_t tmr_cnt_value)
 256:./libraries/drivers/src/at32f413_tmr.c **** {
 539              		.loc 1 256 1 is_stmt 1 view -0
 540              		.cfi_startproc
 541              		@ args = 0, pretend = 0, frame = 0
 542              		@ frame_needed = 0, uses_anonymous_args = 0
 543              		@ link register save eliminated.
 257:./libraries/drivers/src/at32f413_tmr.c ****   /* set the tmr counter value */
 258:./libraries/drivers/src/at32f413_tmr.c ****   tmr_x->cval = tmr_cnt_value;
 544              		.loc 1 258 3 view .LVU120
 545              		.loc 1 258 15 is_stmt 0 view .LVU121
 546 0000 4162     		str	r1, [r0, #36]
 259:./libraries/drivers/src/at32f413_tmr.c **** }
 547              		.loc 1 259 1 view .LVU122
 548 0002 7047     		bx	lr
 549              		.cfi_endproc
 550              	.LFE142:
 552              		.section	.text.tmr_counter_value_get,"ax",%progbits
 553              		.align	1
 554              		.global	tmr_counter_value_get
 555              		.syntax unified
 556              		.thumb
 557              		.thumb_func
 558              		.fpu fpv4-sp-d16
 560              	tmr_counter_value_get:
 561              	.LVL48:
 562              	.LFB143:
 260:./libraries/drivers/src/at32f413_tmr.c **** 
 261:./libraries/drivers/src/at32f413_tmr.c **** /**
 262:./libraries/drivers/src/at32f413_tmr.c ****   * @brief  get tmr counter value
 263:./libraries/drivers/src/at32f413_tmr.c ****   * @param  tmr_x: select the tmr peripheral.
 264:./libraries/drivers/src/at32f413_tmr.c ****   *         this parameter can be one of the following values:
 265:./libraries/drivers/src/at32f413_tmr.c ****   *         TMR1, TMR2, TMR3, TMR4, TMR5, TMR8, TMR9, TMR10,
 266:./libraries/drivers/src/at32f413_tmr.c ****   *         TMR11
 267:./libraries/drivers/src/at32f413_tmr.c ****   * @retval tmr counter value
 268:./libraries/drivers/src/at32f413_tmr.c ****   */
 269:./libraries/drivers/src/at32f413_tmr.c **** uint32_t tmr_counter_value_get(tmr_type *tmr_x)
 270:./libraries/drivers/src/at32f413_tmr.c **** {
 563              		.loc 1 270 1 is_stmt 1 view -0
 564              		.cfi_startproc
 565              		@ args = 0, pretend = 0, frame = 0
 566              		@ frame_needed = 0, uses_anonymous_args = 0
 567              		@ link register save eliminated.
 271:./libraries/drivers/src/at32f413_tmr.c ****   return tmr_x->cval;
 568              		.loc 1 271 3 view .LVU124
 569              		.loc 1 271 15 is_stmt 0 view .LVU125
 570 0000 406A     		ldr	r0, [r0, #36]
 571              	.LVL49:
 272:./libraries/drivers/src/at32f413_tmr.c **** }
 572              		.loc 1 272 1 view .LVU126
 573 0002 7047     		bx	lr
 574              		.cfi_endproc
 575              	.LFE143:
 577              		.section	.text.tmr_div_value_set,"ax",%progbits
 578              		.align	1
ARM GAS  C:\Users\J\AppData\Local\Temp\ccrWFtxe.s 			page 16


 579              		.global	tmr_div_value_set
 580              		.syntax unified
 581              		.thumb
 582              		.thumb_func
 583              		.fpu fpv4-sp-d16
 585              	tmr_div_value_set:
 586              	.LVL50:
 587              	.LFB144:
 273:./libraries/drivers/src/at32f413_tmr.c **** 
 274:./libraries/drivers/src/at32f413_tmr.c **** /**
 275:./libraries/drivers/src/at32f413_tmr.c ****   * @brief  set tmr div value
 276:./libraries/drivers/src/at32f413_tmr.c ****   * @param  tmr_x: select the tmr peripheral.
 277:./libraries/drivers/src/at32f413_tmr.c ****   *         this parameter can be one of the following values:
 278:./libraries/drivers/src/at32f413_tmr.c ****   *         TMR1, TMR2, TMR3, TMR4, TMR5, TMR8, TMR9, TMR10,
 279:./libraries/drivers/src/at32f413_tmr.c ****   *         TMR11
 280:./libraries/drivers/src/at32f413_tmr.c ****   * @param  tmr_div_value (for 16 bit tmr 0x0000~0xFFFF,
 281:./libraries/drivers/src/at32f413_tmr.c ****   *                        for 32 bit tmr 0x0000_0000~0xFFFF_FFFF)
 282:./libraries/drivers/src/at32f413_tmr.c ****   * @retval none
 283:./libraries/drivers/src/at32f413_tmr.c ****   */
 284:./libraries/drivers/src/at32f413_tmr.c **** void tmr_div_value_set(tmr_type *tmr_x, uint32_t tmr_div_value)
 285:./libraries/drivers/src/at32f413_tmr.c **** {
 588              		.loc 1 285 1 is_stmt 1 view -0
 589              		.cfi_startproc
 590              		@ args = 0, pretend = 0, frame = 0
 591              		@ frame_needed = 0, uses_anonymous_args = 0
 592              		@ link register save eliminated.
 286:./libraries/drivers/src/at32f413_tmr.c ****   /* set the tmr div value */
 287:./libraries/drivers/src/at32f413_tmr.c ****   tmr_x->div = tmr_div_value;
 593              		.loc 1 287 3 view .LVU128
 594              		.loc 1 287 14 is_stmt 0 view .LVU129
 595 0000 8162     		str	r1, [r0, #40]
 288:./libraries/drivers/src/at32f413_tmr.c **** }
 596              		.loc 1 288 1 view .LVU130
 597 0002 7047     		bx	lr
 598              		.cfi_endproc
 599              	.LFE144:
 601              		.section	.text.tmr_div_value_get,"ax",%progbits
 602              		.align	1
 603              		.global	tmr_div_value_get
 604              		.syntax unified
 605              		.thumb
 606              		.thumb_func
 607              		.fpu fpv4-sp-d16
 609              	tmr_div_value_get:
 610              	.LVL51:
 611              	.LFB145:
 289:./libraries/drivers/src/at32f413_tmr.c **** 
 290:./libraries/drivers/src/at32f413_tmr.c **** /**
 291:./libraries/drivers/src/at32f413_tmr.c ****   * @brief  get tmr div value
 292:./libraries/drivers/src/at32f413_tmr.c ****   * @param  tmr_x: select the tmr peripheral.
 293:./libraries/drivers/src/at32f413_tmr.c ****   *         this parameter can be one of the following values:
 294:./libraries/drivers/src/at32f413_tmr.c ****   *         TMR1, TMR2, TMR3, TMR4, TMR5, TMR8, TMR9, TMR10,
 295:./libraries/drivers/src/at32f413_tmr.c ****   *         TMR11
 296:./libraries/drivers/src/at32f413_tmr.c ****   * @retval tmr div value
 297:./libraries/drivers/src/at32f413_tmr.c ****   */
 298:./libraries/drivers/src/at32f413_tmr.c **** uint32_t tmr_div_value_get(tmr_type *tmr_x)
 299:./libraries/drivers/src/at32f413_tmr.c **** {
ARM GAS  C:\Users\J\AppData\Local\Temp\ccrWFtxe.s 			page 17


 612              		.loc 1 299 1 is_stmt 1 view -0
 613              		.cfi_startproc
 614              		@ args = 0, pretend = 0, frame = 0
 615              		@ frame_needed = 0, uses_anonymous_args = 0
 616              		@ link register save eliminated.
 300:./libraries/drivers/src/at32f413_tmr.c ****   return tmr_x->div;
 617              		.loc 1 300 3 view .LVU132
 618              		.loc 1 300 15 is_stmt 0 view .LVU133
 619 0000 806A     		ldr	r0, [r0, #40]
 620              	.LVL52:
 301:./libraries/drivers/src/at32f413_tmr.c **** }
 621              		.loc 1 301 1 view .LVU134
 622 0002 7047     		bx	lr
 623              		.cfi_endproc
 624              	.LFE145:
 626              		.section	.text.tmr_output_channel_config,"ax",%progbits
 627              		.align	1
 628              		.global	tmr_output_channel_config
 629              		.syntax unified
 630              		.thumb
 631              		.thumb_func
 632              		.fpu fpv4-sp-d16
 634              	tmr_output_channel_config:
 635              	.LVL53:
 636              	.LFB146:
 302:./libraries/drivers/src/at32f413_tmr.c **** 
 303:./libraries/drivers/src/at32f413_tmr.c **** /**
 304:./libraries/drivers/src/at32f413_tmr.c ****   * @brief  config tmr output channel
 305:./libraries/drivers/src/at32f413_tmr.c ****   * @param  tmr_x: select the tmr peripheral.
 306:./libraries/drivers/src/at32f413_tmr.c ****   *         this parameter can be one of the following values:
 307:./libraries/drivers/src/at32f413_tmr.c ****   *         TMR1, TMR2, TMR3, TMR4, TMR5, TMR8, TMR9, TMR10,
 308:./libraries/drivers/src/at32f413_tmr.c ****   *         TMR11
 309:./libraries/drivers/src/at32f413_tmr.c ****   * @param  tmr_channel
 310:./libraries/drivers/src/at32f413_tmr.c ****   *         this parameter can be one of the following values:
 311:./libraries/drivers/src/at32f413_tmr.c ****   *         - TMR_SELECT_CHANNEL_1
 312:./libraries/drivers/src/at32f413_tmr.c ****   *         - TMR_SELECT_CHANNEL_2
 313:./libraries/drivers/src/at32f413_tmr.c ****   *         - TMR_SELECT_CHANNEL_3
 314:./libraries/drivers/src/at32f413_tmr.c ****   *         - TMR_SELECT_CHANNEL_4
 315:./libraries/drivers/src/at32f413_tmr.c ****   * @param  tmr_output_struct
 316:./libraries/drivers/src/at32f413_tmr.c ****   *         - to the structure of tmr_output_config_type
 317:./libraries/drivers/src/at32f413_tmr.c ****   * @retval none
 318:./libraries/drivers/src/at32f413_tmr.c ****   */
 319:./libraries/drivers/src/at32f413_tmr.c **** void tmr_output_channel_config(tmr_type *tmr_x, tmr_channel_select_type tmr_channel,
 320:./libraries/drivers/src/at32f413_tmr.c ****                                tmr_output_config_type *tmr_output_struct)
 321:./libraries/drivers/src/at32f413_tmr.c **** {
 637              		.loc 1 321 1 is_stmt 1 view -0
 638              		.cfi_startproc
 639              		@ args = 0, pretend = 0, frame = 0
 640              		@ frame_needed = 0, uses_anonymous_args = 0
 641              		.loc 1 321 1 is_stmt 0 view .LVU136
 642 0000 30B5     		push	{r4, r5, lr}
 643              	.LCFI1:
 644              		.cfi_def_cfa_offset 12
 645              		.cfi_offset 4, -12
 646              		.cfi_offset 5, -8
 647              		.cfi_offset 14, -4
 322:./libraries/drivers/src/at32f413_tmr.c ****   uint16_t channel_index = 0, channel_c_index = 0, channel = 0;
ARM GAS  C:\Users\J\AppData\Local\Temp\ccrWFtxe.s 			page 18


 648              		.loc 1 322 3 is_stmt 1 view .LVU137
 649              	.LVL54:
 323:./libraries/drivers/src/at32f413_tmr.c **** 
 324:./libraries/drivers/src/at32f413_tmr.c ****   /* get channel idle state bit position in ctrl2 register */
 325:./libraries/drivers/src/at32f413_tmr.c ****   channel_index = (uint16_t)(tmr_output_struct->oc_idle_state << (8 + tmr_channel));
 650              		.loc 1 325 3 view .LVU138
 651              		.loc 1 325 47 is_stmt 0 view .LVU139
 652 0002 5478     		ldrb	r4, [r2, #1]	@ zero_extendqisi2
 653              		.loc 1 325 69 view .LVU140
 654 0004 01F10803 		add	r3, r1, #8
 655              		.loc 1 325 63 view .LVU141
 656 0008 04FA03F3 		lsl	r3, r4, r3
 657              	.LVL55:
 326:./libraries/drivers/src/at32f413_tmr.c **** 
 327:./libraries/drivers/src/at32f413_tmr.c ****   /* get channel complementary idle state bit position in ctrl2 register */
 328:./libraries/drivers/src/at32f413_tmr.c ****   channel_c_index = (uint16_t)(tmr_output_struct->occ_idle_state << (9 + tmr_channel));
 658              		.loc 1 328 3 is_stmt 1 view .LVU142
 659              		.loc 1 328 49 is_stmt 0 view .LVU143
 660 000c 9478     		ldrb	r4, [r2, #2]	@ zero_extendqisi2
 661              		.loc 1 328 72 view .LVU144
 662 000e 01F10905 		add	r5, r1, #9
 663              		.loc 1 328 66 view .LVU145
 664 0012 AC40     		lsls	r4, r4, r5
 665              	.LVL56:
 329:./libraries/drivers/src/at32f413_tmr.c **** 
 330:./libraries/drivers/src/at32f413_tmr.c ****   if((tmr_x == TMR1) || (tmr_x == TMR8))
 666              		.loc 1 330 3 is_stmt 1 view .LVU146
 667              		.loc 1 330 5 is_stmt 0 view .LVU147
 668 0014 3A4D     		ldr	r5, .L53
 669 0016 A842     		cmp	r0, r5
 670 0018 03D0     		beq	.L40
 671              		.loc 1 330 22 discriminator 1 view .LVU148
 672 001a 05F50065 		add	r5, r5, #2048
 673 001e A842     		cmp	r0, r5
 674 0020 07D1     		bne	.L41
 675              	.L40:
 331:./libraries/drivers/src/at32f413_tmr.c ****   {
 332:./libraries/drivers/src/at32f413_tmr.c ****     /* set output channel complementary idle state */
 333:./libraries/drivers/src/at32f413_tmr.c ****     tmr_x->ctrl2 &= ~channel_c_index;
 676              		.loc 1 333 5 is_stmt 1 view .LVU149
 677              		.loc 1 333 18 is_stmt 0 view .LVU150
 678 0022 4568     		ldr	r5, [r0, #4]
 679 0024 A4B2     		uxth	r4, r4
 680              		.loc 1 333 18 view .LVU151
 681 0026 25EA0405 		bic	r5, r5, r4
 682 002a 4560     		str	r5, [r0, #4]
 334:./libraries/drivers/src/at32f413_tmr.c ****     tmr_x->ctrl2 |= channel_c_index;
 683              		.loc 1 334 5 is_stmt 1 view .LVU152
 684              		.loc 1 334 18 is_stmt 0 view .LVU153
 685 002c 4568     		ldr	r5, [r0, #4]
 686 002e 2C43     		orrs	r4, r4, r5
 687              	.LVL57:
 688              		.loc 1 334 18 view .LVU154
 689 0030 4460     		str	r4, [r0, #4]
 690              	.L41:
 335:./libraries/drivers/src/at32f413_tmr.c ****   }
 336:./libraries/drivers/src/at32f413_tmr.c **** 
ARM GAS  C:\Users\J\AppData\Local\Temp\ccrWFtxe.s 			page 19


 337:./libraries/drivers/src/at32f413_tmr.c ****   /* set output channel idle state */
 338:./libraries/drivers/src/at32f413_tmr.c ****   tmr_x->ctrl2 &= ~channel_index;
 691              		.loc 1 338 3 is_stmt 1 view .LVU155
 692              		.loc 1 338 16 is_stmt 0 view .LVU156
 693 0032 4468     		ldr	r4, [r0, #4]
 694 0034 9BB2     		uxth	r3, r3
 695              		.loc 1 338 16 view .LVU157
 696 0036 24EA0304 		bic	r4, r4, r3
 697 003a 4460     		str	r4, [r0, #4]
 339:./libraries/drivers/src/at32f413_tmr.c ****   tmr_x->ctrl2 |= channel_index;
 698              		.loc 1 339 3 is_stmt 1 view .LVU158
 699              		.loc 1 339 16 is_stmt 0 view .LVU159
 700 003c 4468     		ldr	r4, [r0, #4]
 701 003e 2343     		orrs	r3, r3, r4
 702              	.LVL58:
 703              		.loc 1 339 16 view .LVU160
 704 0040 4360     		str	r3, [r0, #4]
 340:./libraries/drivers/src/at32f413_tmr.c **** 
 341:./libraries/drivers/src/at32f413_tmr.c ****   /* set channel output mode */
 342:./libraries/drivers/src/at32f413_tmr.c ****   channel = tmr_channel;
 705              		.loc 1 342 3 is_stmt 1 view .LVU161
 706              	.LVL59:
 343:./libraries/drivers/src/at32f413_tmr.c **** 
 344:./libraries/drivers/src/at32f413_tmr.c ****   switch(channel)
 707              		.loc 1 344 3 view .LVU162
 708 0042 0629     		cmp	r1, #6
 709 0044 0AD8     		bhi	.L42
 710 0046 DFE801F0 		tbb	[pc, r1]
 711              	.L44:
 712 004a 04       		.byte	(.L47-.L44)/2
 713 004b 09       		.byte	(.L42-.L44)/2
 714 004c 48       		.byte	(.L46-.L44)/2
 715 004d 09       		.byte	(.L42-.L44)/2
 716 004e 4E       		.byte	(.L45-.L44)/2
 717 004f 09       		.byte	(.L42-.L44)/2
 718 0050 54       		.byte	(.L43-.L44)/2
 719 0051 00       		.p2align 1
 720              	.L47:
 345:./libraries/drivers/src/at32f413_tmr.c ****   {
 346:./libraries/drivers/src/at32f413_tmr.c ****     case TMR_SELECT_CHANNEL_1:
 347:./libraries/drivers/src/at32f413_tmr.c ****       tmr_x->cm1_output_bit.c1octrl = tmr_output_struct->oc_mode;
 721              		.loc 1 347 7 view .LVU163
 722              		.loc 1 347 56 is_stmt 0 view .LVU164
 723 0052 1478     		ldrb	r4, [r2]	@ zero_extendqisi2
 724              		.loc 1 347 37 view .LVU165
 725 0054 8369     		ldr	r3, [r0, #24]
 726 0056 64F30613 		bfi	r3, r4, #4, #3
 727 005a 8361     		str	r3, [r0, #24]
 348:./libraries/drivers/src/at32f413_tmr.c ****       break;
 728              		.loc 1 348 7 is_stmt 1 view .LVU166
 729              	.L42:
 349:./libraries/drivers/src/at32f413_tmr.c **** 
 350:./libraries/drivers/src/at32f413_tmr.c ****     case TMR_SELECT_CHANNEL_2:
 351:./libraries/drivers/src/at32f413_tmr.c ****       tmr_x->cm1_output_bit.c2octrl = tmr_output_struct->oc_mode;
 352:./libraries/drivers/src/at32f413_tmr.c ****       break;
 353:./libraries/drivers/src/at32f413_tmr.c **** 
 354:./libraries/drivers/src/at32f413_tmr.c ****     case TMR_SELECT_CHANNEL_3:
ARM GAS  C:\Users\J\AppData\Local\Temp\ccrWFtxe.s 			page 20


 355:./libraries/drivers/src/at32f413_tmr.c ****       tmr_x->cm2_output_bit.c3octrl = tmr_output_struct->oc_mode;
 356:./libraries/drivers/src/at32f413_tmr.c ****       break;
 357:./libraries/drivers/src/at32f413_tmr.c **** 
 358:./libraries/drivers/src/at32f413_tmr.c ****     case TMR_SELECT_CHANNEL_4:
 359:./libraries/drivers/src/at32f413_tmr.c ****       tmr_x->cm2_output_bit.c4octrl = tmr_output_struct->oc_mode;
 360:./libraries/drivers/src/at32f413_tmr.c ****       break;
 361:./libraries/drivers/src/at32f413_tmr.c **** 
 362:./libraries/drivers/src/at32f413_tmr.c ****     default:
 363:./libraries/drivers/src/at32f413_tmr.c ****       break;
 364:./libraries/drivers/src/at32f413_tmr.c ****   }
 365:./libraries/drivers/src/at32f413_tmr.c **** 
 366:./libraries/drivers/src/at32f413_tmr.c ****   /* get channel polarity bit position in cctrl register */
 367:./libraries/drivers/src/at32f413_tmr.c ****   channel_index = (uint16_t)(tmr_output_struct->oc_polarity << ((tmr_channel * 2) + 1));
 730              		.loc 1 367 3 view .LVU167
 731              		.loc 1 367 47 is_stmt 0 view .LVU168
 732 005c D378     		ldrb	r3, [r2, #3]	@ zero_extendqisi2
 733              		.loc 1 367 78 view .LVU169
 734 005e 4D00     		lsls	r5, r1, #1
 735              		.loc 1 367 83 view .LVU170
 736 0060 6C1C     		adds	r4, r5, #1
 737              		.loc 1 367 61 view .LVU171
 738 0062 A340     		lsls	r3, r3, r4
 739              	.LVL60:
 368:./libraries/drivers/src/at32f413_tmr.c **** 
 369:./libraries/drivers/src/at32f413_tmr.c ****   /* get channel complementary polarity bit position in cctrl register */
 370:./libraries/drivers/src/at32f413_tmr.c ****   channel_c_index = (uint16_t)(tmr_output_struct->occ_polarity << ((tmr_channel * 2) + 3));
 740              		.loc 1 370 3 is_stmt 1 view .LVU172
 741              		.loc 1 370 49 is_stmt 0 view .LVU173
 742 0064 92F804E0 		ldrb	lr, [r2, #4]	@ zero_extendqisi2
 743              		.loc 1 370 86 view .LVU174
 744 0068 EC1C     		adds	r4, r5, #3
 745              		.loc 1 370 64 view .LVU175
 746 006a 0EFA04FE 		lsl	lr, lr, r4
 747              	.LVL61:
 371:./libraries/drivers/src/at32f413_tmr.c **** 
 372:./libraries/drivers/src/at32f413_tmr.c ****   if((tmr_x == TMR1) || (tmr_x == TMR8))
 748              		.loc 1 372 3 is_stmt 1 view .LVU176
 749              		.loc 1 372 5 is_stmt 0 view .LVU177
 750 006e 244C     		ldr	r4, .L53
 751 0070 A042     		cmp	r0, r4
 752 0072 03D0     		beq	.L48
 753              		.loc 1 372 22 discriminator 1 view .LVU178
 754 0074 04F50064 		add	r4, r4, #2048
 755 0078 A042     		cmp	r0, r4
 756 007a 08D1     		bne	.L49
 757              	.L48:
 373:./libraries/drivers/src/at32f413_tmr.c ****   {
 374:./libraries/drivers/src/at32f413_tmr.c ****     /* set output channel complementary polarity */
 375:./libraries/drivers/src/at32f413_tmr.c ****     tmr_x->cctrl &= ~channel_c_index;
 758              		.loc 1 375 5 is_stmt 1 view .LVU179
 759 007c 1FFA8EFE 		uxth	lr, lr
 760              		.loc 1 375 18 is_stmt 0 view .LVU180
 761 0080 046A     		ldr	r4, [r0, #32]
 762 0082 24EA0E04 		bic	r4, r4, lr
 763 0086 0462     		str	r4, [r0, #32]
 376:./libraries/drivers/src/at32f413_tmr.c ****     tmr_x->cctrl |= channel_c_index;
 764              		.loc 1 376 5 is_stmt 1 view .LVU181
ARM GAS  C:\Users\J\AppData\Local\Temp\ccrWFtxe.s 			page 21


 765              		.loc 1 376 18 is_stmt 0 view .LVU182
 766 0088 4EEA0404 		orr	r4, lr, r4
 767 008c 0462     		str	r4, [r0, #32]
 768              	.LVL62:
 769              	.L49:
 377:./libraries/drivers/src/at32f413_tmr.c ****   }
 378:./libraries/drivers/src/at32f413_tmr.c **** 
 379:./libraries/drivers/src/at32f413_tmr.c ****   /* set output channel polarity */
 380:./libraries/drivers/src/at32f413_tmr.c ****   tmr_x->cctrl &= ~channel_index;
 770              		.loc 1 380 3 is_stmt 1 view .LVU183
 771 008e 9BB2     		uxth	r3, r3
 772              		.loc 1 380 16 is_stmt 0 view .LVU184
 773 0090 046A     		ldr	r4, [r0, #32]
 774 0092 24EA0304 		bic	r4, r4, r3
 775 0096 0462     		str	r4, [r0, #32]
 381:./libraries/drivers/src/at32f413_tmr.c ****   tmr_x->cctrl |= channel_index;
 776              		.loc 1 381 3 is_stmt 1 view .LVU185
 777              		.loc 1 381 16 is_stmt 0 view .LVU186
 778 0098 2343     		orrs	r3, r3, r4
 779              	.LVL63:
 780              		.loc 1 381 16 view .LVU187
 781 009a 0362     		str	r3, [r0, #32]
 382:./libraries/drivers/src/at32f413_tmr.c **** 
 383:./libraries/drivers/src/at32f413_tmr.c ****   /* get channel enable bit position in cctrl register */
 384:./libraries/drivers/src/at32f413_tmr.c ****   channel_index = (uint16_t)(tmr_output_struct->oc_output_state << (tmr_channel * 2));
 782              		.loc 1 384 3 is_stmt 1 view .LVU188
 783              		.loc 1 384 47 is_stmt 0 view .LVU189
 784 009c 92F805C0 		ldrb	ip, [r2, #5]	@ zero_extendqisi2
 785              		.loc 1 384 65 view .LVU190
 786 00a0 0CFA05FC 		lsl	ip, ip, r5
 787              	.LVL64:
 385:./libraries/drivers/src/at32f413_tmr.c **** 
 386:./libraries/drivers/src/at32f413_tmr.c ****   /* get channel complementary enable bit position in cctrl register */
 387:./libraries/drivers/src/at32f413_tmr.c ****   channel_c_index = (uint16_t)(tmr_output_struct->occ_output_state << ((tmr_channel * 2) + 2));
 788              		.loc 1 387 3 is_stmt 1 view .LVU191
 789              		.loc 1 387 49 is_stmt 0 view .LVU192
 790 00a4 9279     		ldrb	r2, [r2, #6]	@ zero_extendqisi2
 791              	.LVL65:
 792              		.loc 1 387 90 view .LVU193
 793 00a6 0131     		adds	r1, r1, #1
 794              	.LVL66:
 795              		.loc 1 387 90 view .LVU194
 796 00a8 4900     		lsls	r1, r1, #1
 797              		.loc 1 387 68 view .LVU195
 798 00aa 02FA01F1 		lsl	r1, r2, r1
 799              	.LVL67:
 388:./libraries/drivers/src/at32f413_tmr.c **** 
 389:./libraries/drivers/src/at32f413_tmr.c ****   if((tmr_x == TMR1) || (tmr_x == TMR8))
 800              		.loc 1 389 3 is_stmt 1 view .LVU196
 801              		.loc 1 389 5 is_stmt 0 view .LVU197
 802 00ae 144A     		ldr	r2, .L53
 803 00b0 9042     		cmp	r0, r2
 804 00b2 03D0     		beq	.L50
 805              		.loc 1 389 22 discriminator 1 view .LVU198
 806 00b4 02F50062 		add	r2, r2, #2048
 807 00b8 9042     		cmp	r0, r2
 808 00ba 05D1     		bne	.L51
ARM GAS  C:\Users\J\AppData\Local\Temp\ccrWFtxe.s 			page 22


 809              	.L50:
 390:./libraries/drivers/src/at32f413_tmr.c ****   {
 391:./libraries/drivers/src/at32f413_tmr.c ****     /* set output channel complementary enable bit */
 392:./libraries/drivers/src/at32f413_tmr.c ****     tmr_x->cctrl &= ~channel_c_index;
 810              		.loc 1 392 5 is_stmt 1 view .LVU199
 811 00bc 89B2     		uxth	r1, r1
 812              		.loc 1 392 18 is_stmt 0 view .LVU200
 813 00be 23EA0103 		bic	r3, r3, r1
 814 00c2 0362     		str	r3, [r0, #32]
 393:./libraries/drivers/src/at32f413_tmr.c ****     tmr_x->cctrl |= channel_c_index;
 815              		.loc 1 393 5 is_stmt 1 view .LVU201
 816              		.loc 1 393 18 is_stmt 0 view .LVU202
 817 00c4 0B43     		orrs	r3, r3, r1
 818 00c6 0362     		str	r3, [r0, #32]
 819              	.LVL68:
 820              	.L51:
 394:./libraries/drivers/src/at32f413_tmr.c ****   }
 395:./libraries/drivers/src/at32f413_tmr.c **** 
 396:./libraries/drivers/src/at32f413_tmr.c ****   /* set output channel enable bit */
 397:./libraries/drivers/src/at32f413_tmr.c ****   tmr_x->cctrl &= ~channel_index;
 821              		.loc 1 397 3 is_stmt 1 view .LVU203
 822 00c8 1FFA8CF3 		uxth	r3, ip
 823              		.loc 1 397 16 is_stmt 0 view .LVU204
 824 00cc 026A     		ldr	r2, [r0, #32]
 825 00ce 22EA0302 		bic	r2, r2, r3
 826 00d2 0262     		str	r2, [r0, #32]
 398:./libraries/drivers/src/at32f413_tmr.c ****   tmr_x->cctrl |= channel_index;
 827              		.loc 1 398 3 is_stmt 1 view .LVU205
 828              		.loc 1 398 16 is_stmt 0 view .LVU206
 829 00d4 1343     		orrs	r3, r3, r2
 830 00d6 0362     		str	r3, [r0, #32]
 399:./libraries/drivers/src/at32f413_tmr.c **** }
 831              		.loc 1 399 1 view .LVU207
 832 00d8 30BD     		pop	{r4, r5, pc}
 833              	.LVL69:
 834              	.L46:
 351:./libraries/drivers/src/at32f413_tmr.c ****       break;
 835              		.loc 1 351 7 is_stmt 1 view .LVU208
 351:./libraries/drivers/src/at32f413_tmr.c ****       break;
 836              		.loc 1 351 56 is_stmt 0 view .LVU209
 837 00da 1478     		ldrb	r4, [r2]	@ zero_extendqisi2
 351:./libraries/drivers/src/at32f413_tmr.c ****       break;
 838              		.loc 1 351 37 view .LVU210
 839 00dc 8369     		ldr	r3, [r0, #24]
 840 00de 64F30E33 		bfi	r3, r4, #12, #3
 841 00e2 8361     		str	r3, [r0, #24]
 352:./libraries/drivers/src/at32f413_tmr.c **** 
 842              		.loc 1 352 7 is_stmt 1 view .LVU211
 843 00e4 BAE7     		b	.L42
 844              	.L45:
 355:./libraries/drivers/src/at32f413_tmr.c ****       break;
 845              		.loc 1 355 7 view .LVU212
 355:./libraries/drivers/src/at32f413_tmr.c ****       break;
 846              		.loc 1 355 56 is_stmt 0 view .LVU213
 847 00e6 1478     		ldrb	r4, [r2]	@ zero_extendqisi2
 355:./libraries/drivers/src/at32f413_tmr.c ****       break;
 848              		.loc 1 355 37 view .LVU214
ARM GAS  C:\Users\J\AppData\Local\Temp\ccrWFtxe.s 			page 23


 849 00e8 C369     		ldr	r3, [r0, #28]
 850 00ea 64F30613 		bfi	r3, r4, #4, #3
 851 00ee C361     		str	r3, [r0, #28]
 356:./libraries/drivers/src/at32f413_tmr.c **** 
 852              		.loc 1 356 7 is_stmt 1 view .LVU215
 853 00f0 B4E7     		b	.L42
 854              	.L43:
 359:./libraries/drivers/src/at32f413_tmr.c ****       break;
 855              		.loc 1 359 7 view .LVU216
 359:./libraries/drivers/src/at32f413_tmr.c ****       break;
 856              		.loc 1 359 56 is_stmt 0 view .LVU217
 857 00f2 1478     		ldrb	r4, [r2]	@ zero_extendqisi2
 359:./libraries/drivers/src/at32f413_tmr.c ****       break;
 858              		.loc 1 359 37 view .LVU218
 859 00f4 C369     		ldr	r3, [r0, #28]
 860 00f6 64F30E33 		bfi	r3, r4, #12, #3
 861 00fa C361     		str	r3, [r0, #28]
 360:./libraries/drivers/src/at32f413_tmr.c **** 
 862              		.loc 1 360 7 is_stmt 1 view .LVU219
 863 00fc AEE7     		b	.L42
 864              	.L54:
 865 00fe 00BF     		.align	2
 866              	.L53:
 867 0100 002C0140 		.word	1073818624
 868              		.cfi_endproc
 869              	.LFE146:
 871              		.section	.text.tmr_output_channel_mode_select,"ax",%progbits
 872              		.align	1
 873              		.global	tmr_output_channel_mode_select
 874              		.syntax unified
 875              		.thumb
 876              		.thumb_func
 877              		.fpu fpv4-sp-d16
 879              	tmr_output_channel_mode_select:
 880              	.LVL70:
 881              	.LFB147:
 400:./libraries/drivers/src/at32f413_tmr.c **** 
 401:./libraries/drivers/src/at32f413_tmr.c **** /**
 402:./libraries/drivers/src/at32f413_tmr.c ****   * @brief  select tmr output channel mode
 403:./libraries/drivers/src/at32f413_tmr.c ****   * @param  tmr_x: select the tmr peripheral.
 404:./libraries/drivers/src/at32f413_tmr.c ****   *         this parameter can be one of the following values:
 405:./libraries/drivers/src/at32f413_tmr.c ****   *         TMR1, TMR2, TMR3, TMR4, TMR5, TMR8, TMR9, TMR10,
 406:./libraries/drivers/src/at32f413_tmr.c ****   *         TMR11
 407:./libraries/drivers/src/at32f413_tmr.c ****   * @param  tmr_channel
 408:./libraries/drivers/src/at32f413_tmr.c ****   *         this parameter can be one of the following values:
 409:./libraries/drivers/src/at32f413_tmr.c ****   *         - TMR_SELECT_CHANNEL_1
 410:./libraries/drivers/src/at32f413_tmr.c ****   *         - TMR_SELECT_CHANNEL_2
 411:./libraries/drivers/src/at32f413_tmr.c ****   *         - TMR_SELECT_CHANNEL_3
 412:./libraries/drivers/src/at32f413_tmr.c ****   *         - TMR_SELECT_CHANNEL_4
 413:./libraries/drivers/src/at32f413_tmr.c ****   * @param  oc_mode
 414:./libraries/drivers/src/at32f413_tmr.c ****   *         this parameter can be one of the following values:
 415:./libraries/drivers/src/at32f413_tmr.c ****   *         - TMR_OUTPUT_CONTROL_OFF
 416:./libraries/drivers/src/at32f413_tmr.c ****   *         - TMR_OUTPUT_CONTROL_HIGH
 417:./libraries/drivers/src/at32f413_tmr.c ****   *         - TMR_OUTPUT_CONTROL_LOW
 418:./libraries/drivers/src/at32f413_tmr.c ****   *         - TMR_OUTPUT_CONTROL_SWITCH
 419:./libraries/drivers/src/at32f413_tmr.c ****   *         - TMR_OUTPUT_CONTROL_FORCE_HIGH
 420:./libraries/drivers/src/at32f413_tmr.c ****   *         - TMR_OUTPUT_CONTROL_FORCE_LOW
ARM GAS  C:\Users\J\AppData\Local\Temp\ccrWFtxe.s 			page 24


 421:./libraries/drivers/src/at32f413_tmr.c ****   *         - TMR_OUTPUT_CONTROL_PWM_MODE_A
 422:./libraries/drivers/src/at32f413_tmr.c ****   *         - TMR_OUTPUT_CONTROL_PWM_MODE_B
 423:./libraries/drivers/src/at32f413_tmr.c ****   * @retval none
 424:./libraries/drivers/src/at32f413_tmr.c ****   */
 425:./libraries/drivers/src/at32f413_tmr.c **** void tmr_output_channel_mode_select(tmr_type *tmr_x, tmr_channel_select_type tmr_channel,
 426:./libraries/drivers/src/at32f413_tmr.c ****                                     tmr_output_control_mode_type oc_mode)
 427:./libraries/drivers/src/at32f413_tmr.c **** {
 882              		.loc 1 427 1 view -0
 883              		.cfi_startproc
 884              		@ args = 0, pretend = 0, frame = 0
 885              		@ frame_needed = 0, uses_anonymous_args = 0
 886              		@ link register save eliminated.
 428:./libraries/drivers/src/at32f413_tmr.c ****   uint16_t channel;
 887              		.loc 1 428 3 view .LVU221
 429:./libraries/drivers/src/at32f413_tmr.c **** 
 430:./libraries/drivers/src/at32f413_tmr.c ****   channel = tmr_channel;
 888              		.loc 1 430 3 view .LVU222
 431:./libraries/drivers/src/at32f413_tmr.c **** 
 432:./libraries/drivers/src/at32f413_tmr.c ****   switch(channel)
 889              		.loc 1 432 3 view .LVU223
 890 0000 0629     		cmp	r1, #6
 891 0002 18D8     		bhi	.L55
 892 0004 DFE801F0 		tbb	[pc, r1]
 893              	.L58:
 894 0008 04       		.byte	(.L61-.L58)/2
 895 0009 17       		.byte	(.L55-.L58)/2
 896 000a 09       		.byte	(.L60-.L58)/2
 897 000b 17       		.byte	(.L55-.L58)/2
 898 000c 0E       		.byte	(.L59-.L58)/2
 899 000d 17       		.byte	(.L55-.L58)/2
 900 000e 13       		.byte	(.L57-.L58)/2
 901 000f 00       		.p2align 1
 902              	.L61:
 433:./libraries/drivers/src/at32f413_tmr.c ****   {
 434:./libraries/drivers/src/at32f413_tmr.c ****     case TMR_SELECT_CHANNEL_1:
 435:./libraries/drivers/src/at32f413_tmr.c ****       tmr_x->cm1_output_bit.c1octrl = oc_mode;
 903              		.loc 1 435 7 view .LVU224
 904              		.loc 1 435 37 is_stmt 0 view .LVU225
 905 0010 8369     		ldr	r3, [r0, #24]
 906 0012 62F30613 		bfi	r3, r2, #4, #3
 907 0016 8361     		str	r3, [r0, #24]
 436:./libraries/drivers/src/at32f413_tmr.c ****       break;
 908              		.loc 1 436 7 is_stmt 1 view .LVU226
 909 0018 7047     		bx	lr
 910              	.L60:
 437:./libraries/drivers/src/at32f413_tmr.c **** 
 438:./libraries/drivers/src/at32f413_tmr.c ****     case TMR_SELECT_CHANNEL_2:
 439:./libraries/drivers/src/at32f413_tmr.c ****       tmr_x->cm1_output_bit.c2octrl = oc_mode;
 911              		.loc 1 439 7 view .LVU227
 912              		.loc 1 439 37 is_stmt 0 view .LVU228
 913 001a 8369     		ldr	r3, [r0, #24]
 914 001c 62F30E33 		bfi	r3, r2, #12, #3
 915 0020 8361     		str	r3, [r0, #24]
 440:./libraries/drivers/src/at32f413_tmr.c ****       break;
 916              		.loc 1 440 7 is_stmt 1 view .LVU229
 917 0022 7047     		bx	lr
 918              	.L59:
ARM GAS  C:\Users\J\AppData\Local\Temp\ccrWFtxe.s 			page 25


 441:./libraries/drivers/src/at32f413_tmr.c **** 
 442:./libraries/drivers/src/at32f413_tmr.c ****     case TMR_SELECT_CHANNEL_3:
 443:./libraries/drivers/src/at32f413_tmr.c ****       tmr_x->cm2_output_bit.c3octrl = oc_mode;
 919              		.loc 1 443 7 view .LVU230
 920              		.loc 1 443 37 is_stmt 0 view .LVU231
 921 0024 C369     		ldr	r3, [r0, #28]
 922 0026 62F30613 		bfi	r3, r2, #4, #3
 923 002a C361     		str	r3, [r0, #28]
 444:./libraries/drivers/src/at32f413_tmr.c ****       break;
 924              		.loc 1 444 7 is_stmt 1 view .LVU232
 925 002c 7047     		bx	lr
 926              	.L57:
 445:./libraries/drivers/src/at32f413_tmr.c **** 
 446:./libraries/drivers/src/at32f413_tmr.c ****     case TMR_SELECT_CHANNEL_4:
 447:./libraries/drivers/src/at32f413_tmr.c ****       tmr_x->cm2_output_bit.c4octrl = oc_mode;
 927              		.loc 1 447 7 view .LVU233
 928              		.loc 1 447 37 is_stmt 0 view .LVU234
 929 002e C369     		ldr	r3, [r0, #28]
 930 0030 62F30E33 		bfi	r3, r2, #12, #3
 931 0034 C361     		str	r3, [r0, #28]
 448:./libraries/drivers/src/at32f413_tmr.c ****       break;
 932              		.loc 1 448 7 is_stmt 1 view .LVU235
 933              	.L55:
 449:./libraries/drivers/src/at32f413_tmr.c **** 
 450:./libraries/drivers/src/at32f413_tmr.c ****     default:
 451:./libraries/drivers/src/at32f413_tmr.c ****       break;
 452:./libraries/drivers/src/at32f413_tmr.c ****   }
 453:./libraries/drivers/src/at32f413_tmr.c **** }
 934              		.loc 1 453 1 is_stmt 0 view .LVU236
 935 0036 7047     		bx	lr
 936              		.cfi_endproc
 937              	.LFE147:
 939              		.section	.text.tmr_period_value_set,"ax",%progbits
 940              		.align	1
 941              		.global	tmr_period_value_set
 942              		.syntax unified
 943              		.thumb
 944              		.thumb_func
 945              		.fpu fpv4-sp-d16
 947              	tmr_period_value_set:
 948              	.LVL71:
 949              	.LFB148:
 454:./libraries/drivers/src/at32f413_tmr.c **** /**
 455:./libraries/drivers/src/at32f413_tmr.c ****   * @brief  set tmr period value
 456:./libraries/drivers/src/at32f413_tmr.c ****   * @param  tmr_x: select the tmr peripheral.
 457:./libraries/drivers/src/at32f413_tmr.c ****   *         this parameter can be one of the following values:
 458:./libraries/drivers/src/at32f413_tmr.c ****   *         TMR1, TMR2, TMR3, TMR4, TMR5, TMR8, TMR9, TMR10,
 459:./libraries/drivers/src/at32f413_tmr.c ****   *         TMR11
 460:./libraries/drivers/src/at32f413_tmr.c ****   * @param  tmr_pr_value: timer period register value of counter
 461:./libraries/drivers/src/at32f413_tmr.c ****   *                       (for 16 bit tmr 0x0000~0xFFFF,
 462:./libraries/drivers/src/at32f413_tmr.c ****   *                       for 32 bit tmr 0x0000_0000~0xFFFF_FFFF)
 463:./libraries/drivers/src/at32f413_tmr.c ****   * @retval none
 464:./libraries/drivers/src/at32f413_tmr.c ****   */
 465:./libraries/drivers/src/at32f413_tmr.c **** void tmr_period_value_set(tmr_type *tmr_x, uint32_t tmr_pr_value)
 466:./libraries/drivers/src/at32f413_tmr.c **** {
 950              		.loc 1 466 1 is_stmt 1 view -0
 951              		.cfi_startproc
ARM GAS  C:\Users\J\AppData\Local\Temp\ccrWFtxe.s 			page 26


 952              		@ args = 0, pretend = 0, frame = 0
 953              		@ frame_needed = 0, uses_anonymous_args = 0
 954              		@ link register save eliminated.
 467:./libraries/drivers/src/at32f413_tmr.c ****   /* set tmr period value */
 468:./libraries/drivers/src/at32f413_tmr.c ****   tmr_x->pr = tmr_pr_value;
 955              		.loc 1 468 3 view .LVU238
 956              		.loc 1 468 13 is_stmt 0 view .LVU239
 957 0000 C162     		str	r1, [r0, #44]
 469:./libraries/drivers/src/at32f413_tmr.c **** }
 958              		.loc 1 469 1 view .LVU240
 959 0002 7047     		bx	lr
 960              		.cfi_endproc
 961              	.LFE148:
 963              		.section	.text.tmr_period_value_get,"ax",%progbits
 964              		.align	1
 965              		.global	tmr_period_value_get
 966              		.syntax unified
 967              		.thumb
 968              		.thumb_func
 969              		.fpu fpv4-sp-d16
 971              	tmr_period_value_get:
 972              	.LVL72:
 973              	.LFB149:
 470:./libraries/drivers/src/at32f413_tmr.c **** 
 471:./libraries/drivers/src/at32f413_tmr.c **** /**
 472:./libraries/drivers/src/at32f413_tmr.c ****   * @brief  get tmr period value
 473:./libraries/drivers/src/at32f413_tmr.c ****   * @param  tmr_x: select the tmr peripheral.
 474:./libraries/drivers/src/at32f413_tmr.c ****   *         this parameter can be one of the following values:
 475:./libraries/drivers/src/at32f413_tmr.c ****   *         TMR1, TMR2, TMR3, TMR4, TMR5, TMR8, TMR9, TMR10,
 476:./libraries/drivers/src/at32f413_tmr.c ****   *         TMR11
 477:./libraries/drivers/src/at32f413_tmr.c ****   * @retval timer period register value of counter
 478:./libraries/drivers/src/at32f413_tmr.c ****   *         (for 16 bit tmr 0x0000~0xFFFF, for 32 bit tmr
 479:./libraries/drivers/src/at32f413_tmr.c ****   *         0x0000_0000~0xFFFF_FFFF)
 480:./libraries/drivers/src/at32f413_tmr.c ****   */
 481:./libraries/drivers/src/at32f413_tmr.c **** uint32_t tmr_period_value_get(tmr_type *tmr_x)
 482:./libraries/drivers/src/at32f413_tmr.c **** {
 974              		.loc 1 482 1 is_stmt 1 view -0
 975              		.cfi_startproc
 976              		@ args = 0, pretend = 0, frame = 0
 977              		@ frame_needed = 0, uses_anonymous_args = 0
 978              		@ link register save eliminated.
 483:./libraries/drivers/src/at32f413_tmr.c ****   return tmr_x->pr;
 979              		.loc 1 483 3 view .LVU242
 980              		.loc 1 483 15 is_stmt 0 view .LVU243
 981 0000 C06A     		ldr	r0, [r0, #44]
 982              	.LVL73:
 484:./libraries/drivers/src/at32f413_tmr.c **** }
 983              		.loc 1 484 1 view .LVU244
 984 0002 7047     		bx	lr
 985              		.cfi_endproc
 986              	.LFE149:
 988              		.section	.text.tmr_channel_value_set,"ax",%progbits
 989              		.align	1
 990              		.global	tmr_channel_value_set
 991              		.syntax unified
 992              		.thumb
 993              		.thumb_func
ARM GAS  C:\Users\J\AppData\Local\Temp\ccrWFtxe.s 			page 27


 994              		.fpu fpv4-sp-d16
 996              	tmr_channel_value_set:
 997              	.LVL74:
 998              	.LFB150:
 485:./libraries/drivers/src/at32f413_tmr.c **** 
 486:./libraries/drivers/src/at32f413_tmr.c **** /**
 487:./libraries/drivers/src/at32f413_tmr.c ****   * @brief  set tmr channel value
 488:./libraries/drivers/src/at32f413_tmr.c ****   * @param  tmr_x: select the tmr peripheral.
 489:./libraries/drivers/src/at32f413_tmr.c ****   *         this parameter can be one of the following values:
 490:./libraries/drivers/src/at32f413_tmr.c ****   *         TMR1, TMR2, TMR3, TMR4, TMR5, TMR8, TMR9, TMR10,
 491:./libraries/drivers/src/at32f413_tmr.c ****   *         TMR11
 492:./libraries/drivers/src/at32f413_tmr.c ****   * @param  tmr_channel
 493:./libraries/drivers/src/at32f413_tmr.c ****   *         this parameter can be one of the following values:
 494:./libraries/drivers/src/at32f413_tmr.c ****   *         - TMR_SELECT_CHANNEL_1
 495:./libraries/drivers/src/at32f413_tmr.c ****   *         - TMR_SELECT_CHANNEL_2
 496:./libraries/drivers/src/at32f413_tmr.c ****   *         - TMR_SELECT_CHANNEL_3
 497:./libraries/drivers/src/at32f413_tmr.c ****   *         - TMR_SELECT_CHANNEL_4
 498:./libraries/drivers/src/at32f413_tmr.c ****   * @param  tmr_channel_value (for 16 bit tmr 0x0000~0xFFFF,
 499:./libraries/drivers/src/at32f413_tmr.c ****   *                       for 32 bit tmr 0x0000_0000~0xFFFF_FFFF)
 500:./libraries/drivers/src/at32f413_tmr.c ****   * @retval none
 501:./libraries/drivers/src/at32f413_tmr.c ****   */
 502:./libraries/drivers/src/at32f413_tmr.c **** void tmr_channel_value_set(tmr_type *tmr_x, tmr_channel_select_type tmr_channel,
 503:./libraries/drivers/src/at32f413_tmr.c ****                            uint32_t tmr_channel_value)
 504:./libraries/drivers/src/at32f413_tmr.c **** {
 999              		.loc 1 504 1 is_stmt 1 view -0
 1000              		.cfi_startproc
 1001              		@ args = 0, pretend = 0, frame = 0
 1002              		@ frame_needed = 0, uses_anonymous_args = 0
 1003              		@ link register save eliminated.
 505:./libraries/drivers/src/at32f413_tmr.c ****   uint16_t channel;
 1004              		.loc 1 505 3 view .LVU246
 506:./libraries/drivers/src/at32f413_tmr.c **** 
 507:./libraries/drivers/src/at32f413_tmr.c ****   channel = tmr_channel;
 1005              		.loc 1 507 3 view .LVU247
 508:./libraries/drivers/src/at32f413_tmr.c **** 
 509:./libraries/drivers/src/at32f413_tmr.c ****   /* set tmr channel value */
 510:./libraries/drivers/src/at32f413_tmr.c ****   switch(channel)
 1006              		.loc 1 510 3 view .LVU248
 1007 0000 0629     		cmp	r1, #6
 1008 0002 0CD8     		bhi	.L64
 1009 0004 DFE801F0 		tbb	[pc, r1]
 1010              	.L67:
 1011 0008 04       		.byte	(.L70-.L67)/2
 1012 0009 0B       		.byte	(.L64-.L67)/2
 1013 000a 06       		.byte	(.L69-.L67)/2
 1014 000b 0B       		.byte	(.L64-.L67)/2
 1015 000c 08       		.byte	(.L68-.L67)/2
 1016 000d 0B       		.byte	(.L64-.L67)/2
 1017 000e 0A       		.byte	(.L66-.L67)/2
 1018 000f 00       		.p2align 1
 1019              	.L70:
 511:./libraries/drivers/src/at32f413_tmr.c ****   {
 512:./libraries/drivers/src/at32f413_tmr.c ****     case TMR_SELECT_CHANNEL_1:
 513:./libraries/drivers/src/at32f413_tmr.c ****       tmr_x->c1dt = tmr_channel_value;
 1020              		.loc 1 513 7 view .LVU249
 1021              		.loc 1 513 19 is_stmt 0 view .LVU250
 1022 0010 4263     		str	r2, [r0, #52]
ARM GAS  C:\Users\J\AppData\Local\Temp\ccrWFtxe.s 			page 28


 514:./libraries/drivers/src/at32f413_tmr.c ****       break;
 1023              		.loc 1 514 7 is_stmt 1 view .LVU251
 1024 0012 7047     		bx	lr
 1025              	.L69:
 515:./libraries/drivers/src/at32f413_tmr.c **** 
 516:./libraries/drivers/src/at32f413_tmr.c ****     case TMR_SELECT_CHANNEL_2:
 517:./libraries/drivers/src/at32f413_tmr.c ****       tmr_x->c2dt = tmr_channel_value;
 1026              		.loc 1 517 7 view .LVU252
 1027              		.loc 1 517 19 is_stmt 0 view .LVU253
 1028 0014 8263     		str	r2, [r0, #56]
 518:./libraries/drivers/src/at32f413_tmr.c ****       break;
 1029              		.loc 1 518 7 is_stmt 1 view .LVU254
 1030 0016 7047     		bx	lr
 1031              	.L68:
 519:./libraries/drivers/src/at32f413_tmr.c **** 
 520:./libraries/drivers/src/at32f413_tmr.c ****     case TMR_SELECT_CHANNEL_3:
 521:./libraries/drivers/src/at32f413_tmr.c ****       tmr_x->c3dt = tmr_channel_value;
 1032              		.loc 1 521 7 view .LVU255
 1033              		.loc 1 521 19 is_stmt 0 view .LVU256
 1034 0018 C263     		str	r2, [r0, #60]
 522:./libraries/drivers/src/at32f413_tmr.c ****       break;
 1035              		.loc 1 522 7 is_stmt 1 view .LVU257
 1036 001a 7047     		bx	lr
 1037              	.L66:
 523:./libraries/drivers/src/at32f413_tmr.c **** 
 524:./libraries/drivers/src/at32f413_tmr.c ****     case TMR_SELECT_CHANNEL_4:
 525:./libraries/drivers/src/at32f413_tmr.c ****       tmr_x->c4dt = tmr_channel_value;
 1038              		.loc 1 525 7 view .LVU258
 1039              		.loc 1 525 19 is_stmt 0 view .LVU259
 1040 001c 0264     		str	r2, [r0, #64]
 526:./libraries/drivers/src/at32f413_tmr.c ****       break;
 1041              		.loc 1 526 7 is_stmt 1 view .LVU260
 1042              	.L64:
 527:./libraries/drivers/src/at32f413_tmr.c **** 
 528:./libraries/drivers/src/at32f413_tmr.c ****     default:
 529:./libraries/drivers/src/at32f413_tmr.c ****       break;
 530:./libraries/drivers/src/at32f413_tmr.c ****   }
 531:./libraries/drivers/src/at32f413_tmr.c **** }
 1043              		.loc 1 531 1 is_stmt 0 view .LVU261
 1044 001e 7047     		bx	lr
 1045              		.cfi_endproc
 1046              	.LFE150:
 1048              		.section	.text.tmr_channel_value_get,"ax",%progbits
 1049              		.align	1
 1050              		.global	tmr_channel_value_get
 1051              		.syntax unified
 1052              		.thumb
 1053              		.thumb_func
 1054              		.fpu fpv4-sp-d16
 1056              	tmr_channel_value_get:
 1057              	.LVL75:
 1058              	.LFB151:
 532:./libraries/drivers/src/at32f413_tmr.c **** 
 533:./libraries/drivers/src/at32f413_tmr.c **** /**
 534:./libraries/drivers/src/at32f413_tmr.c ****   * @brief  get tmr channel value
 535:./libraries/drivers/src/at32f413_tmr.c ****   * @param  tmr_x: select the tmr peripheral.
 536:./libraries/drivers/src/at32f413_tmr.c ****   *         this parameter can be one of the following values:
ARM GAS  C:\Users\J\AppData\Local\Temp\ccrWFtxe.s 			page 29


 537:./libraries/drivers/src/at32f413_tmr.c ****   *         TMR1, TMR2, TMR3, TMR4, TMR5, TMR8, TMR9, TMR10,
 538:./libraries/drivers/src/at32f413_tmr.c ****   *         TMR11
 539:./libraries/drivers/src/at32f413_tmr.c ****   * @param  tmr_channel
 540:./libraries/drivers/src/at32f413_tmr.c ****   *         this parameter can be one of the following values:
 541:./libraries/drivers/src/at32f413_tmr.c ****   *         - TMR_SELECT_CHANNEL_1
 542:./libraries/drivers/src/at32f413_tmr.c ****   *         - TMR_SELECT_CHANNEL_2
 543:./libraries/drivers/src/at32f413_tmr.c ****   *         - TMR_SELECT_CHANNEL_3
 544:./libraries/drivers/src/at32f413_tmr.c ****   *         - TMR_SELECT_CHANNEL_4
 545:./libraries/drivers/src/at32f413_tmr.c ****   * @retval tmr channel value
 546:./libraries/drivers/src/at32f413_tmr.c ****   */
 547:./libraries/drivers/src/at32f413_tmr.c **** uint32_t tmr_channel_value_get(tmr_type *tmr_x, tmr_channel_select_type tmr_channel)
 548:./libraries/drivers/src/at32f413_tmr.c **** {
 1059              		.loc 1 548 1 is_stmt 1 view -0
 1060              		.cfi_startproc
 1061              		@ args = 0, pretend = 0, frame = 0
 1062              		@ frame_needed = 0, uses_anonymous_args = 0
 1063              		@ link register save eliminated.
 549:./libraries/drivers/src/at32f413_tmr.c ****   uint32_t cc_value_get = 0;
 1064              		.loc 1 549 3 view .LVU263
 550:./libraries/drivers/src/at32f413_tmr.c ****   uint16_t channel;
 1065              		.loc 1 550 3 view .LVU264
 551:./libraries/drivers/src/at32f413_tmr.c **** 
 552:./libraries/drivers/src/at32f413_tmr.c ****   channel = tmr_channel;
 1066              		.loc 1 552 3 view .LVU265
 553:./libraries/drivers/src/at32f413_tmr.c **** 
 554:./libraries/drivers/src/at32f413_tmr.c ****   /* get tmr channel value */
 555:./libraries/drivers/src/at32f413_tmr.c ****   switch(channel)
 1067              		.loc 1 555 3 view .LVU266
 1068 0000 0629     		cmp	r1, #6
 1069 0002 0DD8     		bhi	.L78
 1070 0004 DFE801F0 		tbb	[pc, r1]
 1071              	.L74:
 1072 0008 04       		.byte	(.L77-.L74)/2
 1073 0009 0C       		.byte	(.L78-.L74)/2
 1074 000a 06       		.byte	(.L76-.L74)/2
 1075 000b 0C       		.byte	(.L78-.L74)/2
 1076 000c 08       		.byte	(.L75-.L74)/2
 1077 000d 0C       		.byte	(.L78-.L74)/2
 1078 000e 0A       		.byte	(.L73-.L74)/2
 1079 000f 00       		.p2align 1
 1080              	.L77:
 556:./libraries/drivers/src/at32f413_tmr.c ****   {
 557:./libraries/drivers/src/at32f413_tmr.c ****     case TMR_SELECT_CHANNEL_1:
 558:./libraries/drivers/src/at32f413_tmr.c ****       cc_value_get = tmr_x->c1dt;
 1081              		.loc 1 558 7 view .LVU267
 1082              		.loc 1 558 20 is_stmt 0 view .LVU268
 1083 0010 406B     		ldr	r0, [r0, #52]
 1084              	.LVL76:
 559:./libraries/drivers/src/at32f413_tmr.c ****       break;
 1085              		.loc 1 559 7 is_stmt 1 view .LVU269
 1086 0012 7047     		bx	lr
 1087              	.LVL77:
 1088              	.L76:
 560:./libraries/drivers/src/at32f413_tmr.c **** 
 561:./libraries/drivers/src/at32f413_tmr.c ****     case TMR_SELECT_CHANNEL_2:
 562:./libraries/drivers/src/at32f413_tmr.c ****       cc_value_get = tmr_x->c2dt;
 1089              		.loc 1 562 7 view .LVU270
ARM GAS  C:\Users\J\AppData\Local\Temp\ccrWFtxe.s 			page 30


 1090              		.loc 1 562 20 is_stmt 0 view .LVU271
 1091 0014 806B     		ldr	r0, [r0, #56]
 1092              	.LVL78:
 563:./libraries/drivers/src/at32f413_tmr.c ****       break;
 1093              		.loc 1 563 7 is_stmt 1 view .LVU272
 1094 0016 7047     		bx	lr
 1095              	.LVL79:
 1096              	.L75:
 564:./libraries/drivers/src/at32f413_tmr.c **** 
 565:./libraries/drivers/src/at32f413_tmr.c ****     case TMR_SELECT_CHANNEL_3:
 566:./libraries/drivers/src/at32f413_tmr.c ****       cc_value_get = tmr_x->c3dt;
 1097              		.loc 1 566 7 view .LVU273
 1098              		.loc 1 566 20 is_stmt 0 view .LVU274
 1099 0018 C06B     		ldr	r0, [r0, #60]
 1100              	.LVL80:
 567:./libraries/drivers/src/at32f413_tmr.c ****       break;
 1101              		.loc 1 567 7 is_stmt 1 view .LVU275
 1102 001a 7047     		bx	lr
 1103              	.LVL81:
 1104              	.L73:
 568:./libraries/drivers/src/at32f413_tmr.c **** 
 569:./libraries/drivers/src/at32f413_tmr.c ****     case TMR_SELECT_CHANNEL_4:
 570:./libraries/drivers/src/at32f413_tmr.c ****       cc_value_get = tmr_x->c4dt;
 1105              		.loc 1 570 7 view .LVU276
 1106              		.loc 1 570 20 is_stmt 0 view .LVU277
 1107 001c 006C     		ldr	r0, [r0, #64]
 1108              	.LVL82:
 571:./libraries/drivers/src/at32f413_tmr.c ****       break;
 1109              		.loc 1 571 7 is_stmt 1 view .LVU278
 1110 001e 7047     		bx	lr
 1111              	.LVL83:
 1112              	.L78:
 555:./libraries/drivers/src/at32f413_tmr.c ****   {
 1113              		.loc 1 555 3 is_stmt 0 view .LVU279
 1114 0020 0020     		movs	r0, #0
 1115              	.LVL84:
 572:./libraries/drivers/src/at32f413_tmr.c **** 
 573:./libraries/drivers/src/at32f413_tmr.c ****     default:
 574:./libraries/drivers/src/at32f413_tmr.c ****       break;
 575:./libraries/drivers/src/at32f413_tmr.c ****   }
 576:./libraries/drivers/src/at32f413_tmr.c **** 
 577:./libraries/drivers/src/at32f413_tmr.c ****   return cc_value_get;
 1116              		.loc 1 577 3 is_stmt 1 view .LVU280
 578:./libraries/drivers/src/at32f413_tmr.c **** }
 1117              		.loc 1 578 1 is_stmt 0 view .LVU281
 1118 0022 7047     		bx	lr
 1119              		.cfi_endproc
 1120              	.LFE151:
 1122              		.section	.text.tmr_period_buffer_enable,"ax",%progbits
 1123              		.align	1
 1124              		.global	tmr_period_buffer_enable
 1125              		.syntax unified
 1126              		.thumb
 1127              		.thumb_func
 1128              		.fpu fpv4-sp-d16
 1130              	tmr_period_buffer_enable:
 1131              	.LVL85:
ARM GAS  C:\Users\J\AppData\Local\Temp\ccrWFtxe.s 			page 31


 1132              	.LFB152:
 579:./libraries/drivers/src/at32f413_tmr.c **** /**
 580:./libraries/drivers/src/at32f413_tmr.c ****   * @brief  enable tmr period buffer
 581:./libraries/drivers/src/at32f413_tmr.c ****   * @param  tmr_x: select the tmr peripheral.
 582:./libraries/drivers/src/at32f413_tmr.c ****   *         this parameter can be one of the following values:
 583:./libraries/drivers/src/at32f413_tmr.c ****   *         TMR1, TMR2, TMR3, TMR4, TMR5, TMR8, TMR9, TMR10,
 584:./libraries/drivers/src/at32f413_tmr.c ****   *         TMR11
 585:./libraries/drivers/src/at32f413_tmr.c ****   * @param  new_state (TRUE or FALSE)
 586:./libraries/drivers/src/at32f413_tmr.c ****   * @retval none
 587:./libraries/drivers/src/at32f413_tmr.c ****   */
 588:./libraries/drivers/src/at32f413_tmr.c **** void tmr_period_buffer_enable(tmr_type *tmr_x, confirm_state new_state)
 589:./libraries/drivers/src/at32f413_tmr.c **** {
 1133              		.loc 1 589 1 is_stmt 1 view -0
 1134              		.cfi_startproc
 1135              		@ args = 0, pretend = 0, frame = 0
 1136              		@ frame_needed = 0, uses_anonymous_args = 0
 1137              		@ link register save eliminated.
 590:./libraries/drivers/src/at32f413_tmr.c ****   /* tmr period buffer set */
 591:./libraries/drivers/src/at32f413_tmr.c ****   tmr_x->ctrl1_bit.prben = new_state;
 1138              		.loc 1 591 3 view .LVU283
 1139              		.loc 1 591 26 is_stmt 0 view .LVU284
 1140 0000 0368     		ldr	r3, [r0]
 1141 0002 61F3C713 		bfi	r3, r1, #7, #1
 1142 0006 0360     		str	r3, [r0]
 592:./libraries/drivers/src/at32f413_tmr.c **** }
 1143              		.loc 1 592 1 view .LVU285
 1144 0008 7047     		bx	lr
 1145              		.cfi_endproc
 1146              	.LFE152:
 1148              		.section	.text.tmr_output_channel_buffer_enable,"ax",%progbits
 1149              		.align	1
 1150              		.global	tmr_output_channel_buffer_enable
 1151              		.syntax unified
 1152              		.thumb
 1153              		.thumb_func
 1154              		.fpu fpv4-sp-d16
 1156              	tmr_output_channel_buffer_enable:
 1157              	.LVL86:
 1158              	.LFB153:
 593:./libraries/drivers/src/at32f413_tmr.c **** 
 594:./libraries/drivers/src/at32f413_tmr.c **** /**
 595:./libraries/drivers/src/at32f413_tmr.c ****   * @brief  enable tmr output channel buffer
 596:./libraries/drivers/src/at32f413_tmr.c ****   * @param  tmr_x: select the tmr peripheral.
 597:./libraries/drivers/src/at32f413_tmr.c ****   *         this parameter can be one of the following values:
 598:./libraries/drivers/src/at32f413_tmr.c ****   *         TMR1, TMR2, TMR3, TMR4, TMR5, TMR8, TMR9, TMR10,
 599:./libraries/drivers/src/at32f413_tmr.c ****   *         TMR11
 600:./libraries/drivers/src/at32f413_tmr.c ****   * @param  tmr_channel
 601:./libraries/drivers/src/at32f413_tmr.c ****   *         this parameter can be one of the following values:
 602:./libraries/drivers/src/at32f413_tmr.c ****   *         - TMR_SELECT_CHANNEL_1
 603:./libraries/drivers/src/at32f413_tmr.c ****   *         - TMR_SELECT_CHANNEL_2
 604:./libraries/drivers/src/at32f413_tmr.c ****   *         - TMR_SELECT_CHANNEL_3
 605:./libraries/drivers/src/at32f413_tmr.c ****   *         - TMR_SELECT_CHANNEL_4
 606:./libraries/drivers/src/at32f413_tmr.c ****   * @param  new_state (TRUE or FALSE)
 607:./libraries/drivers/src/at32f413_tmr.c ****   * @retval none
 608:./libraries/drivers/src/at32f413_tmr.c ****   */
 609:./libraries/drivers/src/at32f413_tmr.c **** void tmr_output_channel_buffer_enable(tmr_type *tmr_x, tmr_channel_select_type tmr_channel,
 610:./libraries/drivers/src/at32f413_tmr.c ****                                    confirm_state new_state)
ARM GAS  C:\Users\J\AppData\Local\Temp\ccrWFtxe.s 			page 32


 611:./libraries/drivers/src/at32f413_tmr.c **** {
 1159              		.loc 1 611 1 is_stmt 1 view -0
 1160              		.cfi_startproc
 1161              		@ args = 0, pretend = 0, frame = 0
 1162              		@ frame_needed = 0, uses_anonymous_args = 0
 1163              		@ link register save eliminated.
 612:./libraries/drivers/src/at32f413_tmr.c ****   uint16_t channel;
 1164              		.loc 1 612 3 view .LVU287
 613:./libraries/drivers/src/at32f413_tmr.c **** 
 614:./libraries/drivers/src/at32f413_tmr.c ****   channel = tmr_channel;
 1165              		.loc 1 614 3 view .LVU288
 615:./libraries/drivers/src/at32f413_tmr.c **** 
 616:./libraries/drivers/src/at32f413_tmr.c ****   /* get tmr channel value */
 617:./libraries/drivers/src/at32f413_tmr.c ****   switch(channel)
 1166              		.loc 1 617 3 view .LVU289
 1167 0000 0629     		cmp	r1, #6
 1168 0002 18D8     		bhi	.L80
 1169 0004 DFE801F0 		tbb	[pc, r1]
 1170              	.L83:
 1171 0008 04       		.byte	(.L86-.L83)/2
 1172 0009 17       		.byte	(.L80-.L83)/2
 1173 000a 09       		.byte	(.L85-.L83)/2
 1174 000b 17       		.byte	(.L80-.L83)/2
 1175 000c 0E       		.byte	(.L84-.L83)/2
 1176 000d 17       		.byte	(.L80-.L83)/2
 1177 000e 13       		.byte	(.L82-.L83)/2
 1178 000f 00       		.p2align 1
 1179              	.L86:
 618:./libraries/drivers/src/at32f413_tmr.c ****   {
 619:./libraries/drivers/src/at32f413_tmr.c ****     case TMR_SELECT_CHANNEL_1:
 620:./libraries/drivers/src/at32f413_tmr.c ****       tmr_x->cm1_output_bit.c1oben = new_state;
 1180              		.loc 1 620 7 view .LVU290
 1181              		.loc 1 620 36 is_stmt 0 view .LVU291
 1182 0010 8369     		ldr	r3, [r0, #24]
 1183 0012 62F3C303 		bfi	r3, r2, #3, #1
 1184 0016 8361     		str	r3, [r0, #24]
 621:./libraries/drivers/src/at32f413_tmr.c ****       break;
 1185              		.loc 1 621 7 is_stmt 1 view .LVU292
 1186 0018 7047     		bx	lr
 1187              	.L85:
 622:./libraries/drivers/src/at32f413_tmr.c **** 
 623:./libraries/drivers/src/at32f413_tmr.c ****     case TMR_SELECT_CHANNEL_2:
 624:./libraries/drivers/src/at32f413_tmr.c ****       tmr_x->cm1_output_bit.c2oben = new_state;
 1188              		.loc 1 624 7 view .LVU293
 1189              		.loc 1 624 36 is_stmt 0 view .LVU294
 1190 001a 8369     		ldr	r3, [r0, #24]
 1191 001c 62F3CB23 		bfi	r3, r2, #11, #1
 1192 0020 8361     		str	r3, [r0, #24]
 625:./libraries/drivers/src/at32f413_tmr.c ****       break;
 1193              		.loc 1 625 7 is_stmt 1 view .LVU295
 1194 0022 7047     		bx	lr
 1195              	.L84:
 626:./libraries/drivers/src/at32f413_tmr.c **** 
 627:./libraries/drivers/src/at32f413_tmr.c ****     case TMR_SELECT_CHANNEL_3:
 628:./libraries/drivers/src/at32f413_tmr.c ****       tmr_x->cm2_output_bit.c3oben = new_state;
 1196              		.loc 1 628 7 view .LVU296
 1197              		.loc 1 628 36 is_stmt 0 view .LVU297
ARM GAS  C:\Users\J\AppData\Local\Temp\ccrWFtxe.s 			page 33


 1198 0024 C369     		ldr	r3, [r0, #28]
 1199 0026 62F3C303 		bfi	r3, r2, #3, #1
 1200 002a C361     		str	r3, [r0, #28]
 629:./libraries/drivers/src/at32f413_tmr.c ****       break;
 1201              		.loc 1 629 7 is_stmt 1 view .LVU298
 1202 002c 7047     		bx	lr
 1203              	.L82:
 630:./libraries/drivers/src/at32f413_tmr.c **** 
 631:./libraries/drivers/src/at32f413_tmr.c ****     case TMR_SELECT_CHANNEL_4:
 632:./libraries/drivers/src/at32f413_tmr.c ****       tmr_x->cm2_output_bit.c4oben = new_state;
 1204              		.loc 1 632 7 view .LVU299
 1205              		.loc 1 632 36 is_stmt 0 view .LVU300
 1206 002e C369     		ldr	r3, [r0, #28]
 1207 0030 62F3CB23 		bfi	r3, r2, #11, #1
 1208 0034 C361     		str	r3, [r0, #28]
 633:./libraries/drivers/src/at32f413_tmr.c ****       break;
 1209              		.loc 1 633 7 is_stmt 1 view .LVU301
 1210              	.L80:
 634:./libraries/drivers/src/at32f413_tmr.c **** 
 635:./libraries/drivers/src/at32f413_tmr.c ****     default:
 636:./libraries/drivers/src/at32f413_tmr.c ****       break;
 637:./libraries/drivers/src/at32f413_tmr.c ****   }
 638:./libraries/drivers/src/at32f413_tmr.c **** }
 1211              		.loc 1 638 1 is_stmt 0 view .LVU302
 1212 0036 7047     		bx	lr
 1213              		.cfi_endproc
 1214              	.LFE153:
 1216              		.section	.text.tmr_output_channel_immediately_set,"ax",%progbits
 1217              		.align	1
 1218              		.global	tmr_output_channel_immediately_set
 1219              		.syntax unified
 1220              		.thumb
 1221              		.thumb_func
 1222              		.fpu fpv4-sp-d16
 1224              	tmr_output_channel_immediately_set:
 1225              	.LVL87:
 1226              	.LFB154:
 639:./libraries/drivers/src/at32f413_tmr.c **** 
 640:./libraries/drivers/src/at32f413_tmr.c **** /**
 641:./libraries/drivers/src/at32f413_tmr.c ****   * @brief  set tmr output channel immediately
 642:./libraries/drivers/src/at32f413_tmr.c ****   * @param  tmr_x: select the tmr peripheral.
 643:./libraries/drivers/src/at32f413_tmr.c ****   *         this parameter can be one of the following values:
 644:./libraries/drivers/src/at32f413_tmr.c ****   *         TMR1, TMR2, TMR3, TMR4, TMR5, TMR8, TMR9, TMR10,
 645:./libraries/drivers/src/at32f413_tmr.c ****   *         TMR11
 646:./libraries/drivers/src/at32f413_tmr.c ****   * @param  tmr_channel
 647:./libraries/drivers/src/at32f413_tmr.c ****   *         this parameter can be one of the following values:
 648:./libraries/drivers/src/at32f413_tmr.c ****   *         - TMR_SELECT_CHANNEL_1
 649:./libraries/drivers/src/at32f413_tmr.c ****   *         - TMR_SELECT_CHANNEL_2
 650:./libraries/drivers/src/at32f413_tmr.c ****   *         - TMR_SELECT_CHANNEL_3
 651:./libraries/drivers/src/at32f413_tmr.c ****   *         - TMR_SELECT_CHANNEL_4
 652:./libraries/drivers/src/at32f413_tmr.c ****   * @param  new_state (TRUE or FALSE)
 653:./libraries/drivers/src/at32f413_tmr.c ****   * @retval none
 654:./libraries/drivers/src/at32f413_tmr.c ****   */
 655:./libraries/drivers/src/at32f413_tmr.c **** void tmr_output_channel_immediately_set(tmr_type *tmr_x, tmr_channel_select_type tmr_channel,
 656:./libraries/drivers/src/at32f413_tmr.c ****                                         confirm_state new_state)
 657:./libraries/drivers/src/at32f413_tmr.c **** {
 1227              		.loc 1 657 1 is_stmt 1 view -0
ARM GAS  C:\Users\J\AppData\Local\Temp\ccrWFtxe.s 			page 34


 1228              		.cfi_startproc
 1229              		@ args = 0, pretend = 0, frame = 0
 1230              		@ frame_needed = 0, uses_anonymous_args = 0
 1231              		@ link register save eliminated.
 658:./libraries/drivers/src/at32f413_tmr.c ****   uint16_t channel;
 1232              		.loc 1 658 3 view .LVU304
 659:./libraries/drivers/src/at32f413_tmr.c **** 
 660:./libraries/drivers/src/at32f413_tmr.c ****   channel = tmr_channel;
 1233              		.loc 1 660 3 view .LVU305
 661:./libraries/drivers/src/at32f413_tmr.c **** 
 662:./libraries/drivers/src/at32f413_tmr.c ****   /* get tmr channel value */
 663:./libraries/drivers/src/at32f413_tmr.c ****   switch(channel)
 1234              		.loc 1 663 3 view .LVU306
 1235 0000 0629     		cmp	r1, #6
 1236 0002 18D8     		bhi	.L87
 1237 0004 DFE801F0 		tbb	[pc, r1]
 1238              	.L90:
 1239 0008 04       		.byte	(.L93-.L90)/2
 1240 0009 17       		.byte	(.L87-.L90)/2
 1241 000a 09       		.byte	(.L92-.L90)/2
 1242 000b 17       		.byte	(.L87-.L90)/2
 1243 000c 0E       		.byte	(.L91-.L90)/2
 1244 000d 17       		.byte	(.L87-.L90)/2
 1245 000e 13       		.byte	(.L89-.L90)/2
 1246 000f 00       		.p2align 1
 1247              	.L93:
 664:./libraries/drivers/src/at32f413_tmr.c ****   {
 665:./libraries/drivers/src/at32f413_tmr.c ****     case TMR_SELECT_CHANNEL_1:
 666:./libraries/drivers/src/at32f413_tmr.c ****       tmr_x->cm1_output_bit.c1oien = new_state;
 1248              		.loc 1 666 7 view .LVU307
 1249              		.loc 1 666 36 is_stmt 0 view .LVU308
 1250 0010 8369     		ldr	r3, [r0, #24]
 1251 0012 62F38203 		bfi	r3, r2, #2, #1
 1252 0016 8361     		str	r3, [r0, #24]
 667:./libraries/drivers/src/at32f413_tmr.c ****       break;
 1253              		.loc 1 667 7 is_stmt 1 view .LVU309
 1254 0018 7047     		bx	lr
 1255              	.L92:
 668:./libraries/drivers/src/at32f413_tmr.c **** 
 669:./libraries/drivers/src/at32f413_tmr.c ****     case TMR_SELECT_CHANNEL_2:
 670:./libraries/drivers/src/at32f413_tmr.c ****       tmr_x->cm1_output_bit.c2oien = new_state;
 1256              		.loc 1 670 7 view .LVU310
 1257              		.loc 1 670 36 is_stmt 0 view .LVU311
 1258 001a 8369     		ldr	r3, [r0, #24]
 1259 001c 62F38A23 		bfi	r3, r2, #10, #1
 1260 0020 8361     		str	r3, [r0, #24]
 671:./libraries/drivers/src/at32f413_tmr.c ****       break;
 1261              		.loc 1 671 7 is_stmt 1 view .LVU312
 1262 0022 7047     		bx	lr
 1263              	.L91:
 672:./libraries/drivers/src/at32f413_tmr.c **** 
 673:./libraries/drivers/src/at32f413_tmr.c ****     case TMR_SELECT_CHANNEL_3:
 674:./libraries/drivers/src/at32f413_tmr.c ****       tmr_x->cm2_output_bit.c3oien = new_state;
 1264              		.loc 1 674 7 view .LVU313
 1265              		.loc 1 674 36 is_stmt 0 view .LVU314
 1266 0024 C369     		ldr	r3, [r0, #28]
 1267 0026 62F38203 		bfi	r3, r2, #2, #1
ARM GAS  C:\Users\J\AppData\Local\Temp\ccrWFtxe.s 			page 35


 1268 002a C361     		str	r3, [r0, #28]
 675:./libraries/drivers/src/at32f413_tmr.c ****       break;
 1269              		.loc 1 675 7 is_stmt 1 view .LVU315
 1270 002c 7047     		bx	lr
 1271              	.L89:
 676:./libraries/drivers/src/at32f413_tmr.c **** 
 677:./libraries/drivers/src/at32f413_tmr.c ****     case TMR_SELECT_CHANNEL_4:
 678:./libraries/drivers/src/at32f413_tmr.c ****       tmr_x->cm2_output_bit.c4oien = new_state;
 1272              		.loc 1 678 7 view .LVU316
 1273              		.loc 1 678 36 is_stmt 0 view .LVU317
 1274 002e C369     		ldr	r3, [r0, #28]
 1275 0030 62F38A23 		bfi	r3, r2, #10, #1
 1276 0034 C361     		str	r3, [r0, #28]
 679:./libraries/drivers/src/at32f413_tmr.c ****       break;
 1277              		.loc 1 679 7 is_stmt 1 view .LVU318
 1278              	.L87:
 680:./libraries/drivers/src/at32f413_tmr.c **** 
 681:./libraries/drivers/src/at32f413_tmr.c ****     default:
 682:./libraries/drivers/src/at32f413_tmr.c ****       break;
 683:./libraries/drivers/src/at32f413_tmr.c ****   }
 684:./libraries/drivers/src/at32f413_tmr.c **** }
 1279              		.loc 1 684 1 is_stmt 0 view .LVU319
 1280 0036 7047     		bx	lr
 1281              		.cfi_endproc
 1282              	.LFE154:
 1284              		.section	.text.tmr_output_channel_switch_set,"ax",%progbits
 1285              		.align	1
 1286              		.global	tmr_output_channel_switch_set
 1287              		.syntax unified
 1288              		.thumb
 1289              		.thumb_func
 1290              		.fpu fpv4-sp-d16
 1292              	tmr_output_channel_switch_set:
 1293              	.LVL88:
 1294              	.LFB155:
 685:./libraries/drivers/src/at32f413_tmr.c **** 
 686:./libraries/drivers/src/at32f413_tmr.c **** /**
 687:./libraries/drivers/src/at32f413_tmr.c ****   * @brief  set tmr output channel switch
 688:./libraries/drivers/src/at32f413_tmr.c ****   * @param  tmr_x: select the tmr peripheral.
 689:./libraries/drivers/src/at32f413_tmr.c ****   *         this parameter can be one of the following values:
 690:./libraries/drivers/src/at32f413_tmr.c ****   *         TMR1, TMR2, TMR3, TMR4, TMR5, TMR8, TMR9, TMR10,
 691:./libraries/drivers/src/at32f413_tmr.c ****   *         TMR11
 692:./libraries/drivers/src/at32f413_tmr.c ****   * @param  tmr_channel
 693:./libraries/drivers/src/at32f413_tmr.c ****   *         this parameter can be one of the following values:
 694:./libraries/drivers/src/at32f413_tmr.c ****   *         - TMR_SELECT_CHANNEL_1
 695:./libraries/drivers/src/at32f413_tmr.c ****   *         - TMR_SELECT_CHANNEL_2
 696:./libraries/drivers/src/at32f413_tmr.c ****   *         - TMR_SELECT_CHANNEL_3
 697:./libraries/drivers/src/at32f413_tmr.c ****   *         - TMR_SELECT_CHANNEL_4
 698:./libraries/drivers/src/at32f413_tmr.c ****   * @param  new_state (TRUE or FALSE)
 699:./libraries/drivers/src/at32f413_tmr.c ****   * @retval none
 700:./libraries/drivers/src/at32f413_tmr.c ****   */
 701:./libraries/drivers/src/at32f413_tmr.c **** void tmr_output_channel_switch_set(tmr_type *tmr_x, tmr_channel_select_type tmr_channel,
 702:./libraries/drivers/src/at32f413_tmr.c ****                                    confirm_state new_state)
 703:./libraries/drivers/src/at32f413_tmr.c **** {
 1295              		.loc 1 703 1 is_stmt 1 view -0
 1296              		.cfi_startproc
 1297              		@ args = 0, pretend = 0, frame = 0
ARM GAS  C:\Users\J\AppData\Local\Temp\ccrWFtxe.s 			page 36


 1298              		@ frame_needed = 0, uses_anonymous_args = 0
 1299              		@ link register save eliminated.
 704:./libraries/drivers/src/at32f413_tmr.c ****   uint16_t channel;
 1300              		.loc 1 704 3 view .LVU321
 705:./libraries/drivers/src/at32f413_tmr.c **** 
 706:./libraries/drivers/src/at32f413_tmr.c ****   channel = tmr_channel;
 1301              		.loc 1 706 3 view .LVU322
 707:./libraries/drivers/src/at32f413_tmr.c **** 
 708:./libraries/drivers/src/at32f413_tmr.c ****   /* get tmr channel value */
 709:./libraries/drivers/src/at32f413_tmr.c ****   switch(channel)
 1302              		.loc 1 709 3 view .LVU323
 1303 0000 0629     		cmp	r1, #6
 1304 0002 18D8     		bhi	.L94
 1305 0004 DFE801F0 		tbb	[pc, r1]
 1306              	.L97:
 1307 0008 04       		.byte	(.L100-.L97)/2
 1308 0009 17       		.byte	(.L94-.L97)/2
 1309 000a 09       		.byte	(.L99-.L97)/2
 1310 000b 17       		.byte	(.L94-.L97)/2
 1311 000c 0E       		.byte	(.L98-.L97)/2
 1312 000d 17       		.byte	(.L94-.L97)/2
 1313 000e 13       		.byte	(.L96-.L97)/2
 1314 000f 00       		.p2align 1
 1315              	.L100:
 710:./libraries/drivers/src/at32f413_tmr.c ****   {
 711:./libraries/drivers/src/at32f413_tmr.c ****     case TMR_SELECT_CHANNEL_1:
 712:./libraries/drivers/src/at32f413_tmr.c ****       tmr_x->cm1_output_bit.c1osen = new_state;
 1316              		.loc 1 712 7 view .LVU324
 1317              		.loc 1 712 36 is_stmt 0 view .LVU325
 1318 0010 8369     		ldr	r3, [r0, #24]
 1319 0012 62F3C713 		bfi	r3, r2, #7, #1
 1320 0016 8361     		str	r3, [r0, #24]
 713:./libraries/drivers/src/at32f413_tmr.c ****       break;
 1321              		.loc 1 713 7 is_stmt 1 view .LVU326
 1322 0018 7047     		bx	lr
 1323              	.L99:
 714:./libraries/drivers/src/at32f413_tmr.c **** 
 715:./libraries/drivers/src/at32f413_tmr.c ****     case TMR_SELECT_CHANNEL_2:
 716:./libraries/drivers/src/at32f413_tmr.c ****       tmr_x->cm1_output_bit.c2osen = new_state;
 1324              		.loc 1 716 7 view .LVU327
 1325              		.loc 1 716 36 is_stmt 0 view .LVU328
 1326 001a 8369     		ldr	r3, [r0, #24]
 1327 001c 62F3CF33 		bfi	r3, r2, #15, #1
 1328 0020 8361     		str	r3, [r0, #24]
 717:./libraries/drivers/src/at32f413_tmr.c ****       break;
 1329              		.loc 1 717 7 is_stmt 1 view .LVU329
 1330 0022 7047     		bx	lr
 1331              	.L98:
 718:./libraries/drivers/src/at32f413_tmr.c **** 
 719:./libraries/drivers/src/at32f413_tmr.c ****     case TMR_SELECT_CHANNEL_3:
 720:./libraries/drivers/src/at32f413_tmr.c ****       tmr_x->cm2_output_bit.c3osen = new_state;
 1332              		.loc 1 720 7 view .LVU330
 1333              		.loc 1 720 36 is_stmt 0 view .LVU331
 1334 0024 C369     		ldr	r3, [r0, #28]
 1335 0026 62F3C713 		bfi	r3, r2, #7, #1
 1336 002a C361     		str	r3, [r0, #28]
 721:./libraries/drivers/src/at32f413_tmr.c ****       break;
ARM GAS  C:\Users\J\AppData\Local\Temp\ccrWFtxe.s 			page 37


 1337              		.loc 1 721 7 is_stmt 1 view .LVU332
 1338 002c 7047     		bx	lr
 1339              	.L96:
 722:./libraries/drivers/src/at32f413_tmr.c **** 
 723:./libraries/drivers/src/at32f413_tmr.c ****     case TMR_SELECT_CHANNEL_4:
 724:./libraries/drivers/src/at32f413_tmr.c ****       tmr_x->cm2_output_bit.c4osen = new_state;
 1340              		.loc 1 724 7 view .LVU333
 1341              		.loc 1 724 36 is_stmt 0 view .LVU334
 1342 002e C369     		ldr	r3, [r0, #28]
 1343 0030 62F3CF33 		bfi	r3, r2, #15, #1
 1344 0034 C361     		str	r3, [r0, #28]
 725:./libraries/drivers/src/at32f413_tmr.c ****       break;
 1345              		.loc 1 725 7 is_stmt 1 view .LVU335
 1346              	.L94:
 726:./libraries/drivers/src/at32f413_tmr.c **** 
 727:./libraries/drivers/src/at32f413_tmr.c ****     default:
 728:./libraries/drivers/src/at32f413_tmr.c ****       break;
 729:./libraries/drivers/src/at32f413_tmr.c ****   }
 730:./libraries/drivers/src/at32f413_tmr.c **** }
 1347              		.loc 1 730 1 is_stmt 0 view .LVU336
 1348 0036 7047     		bx	lr
 1349              		.cfi_endproc
 1350              	.LFE155:
 1352              		.section	.text.tmr_one_cycle_mode_enable,"ax",%progbits
 1353              		.align	1
 1354              		.global	tmr_one_cycle_mode_enable
 1355              		.syntax unified
 1356              		.thumb
 1357              		.thumb_func
 1358              		.fpu fpv4-sp-d16
 1360              	tmr_one_cycle_mode_enable:
 1361              	.LVL89:
 1362              	.LFB156:
 731:./libraries/drivers/src/at32f413_tmr.c **** 
 732:./libraries/drivers/src/at32f413_tmr.c **** /**
 733:./libraries/drivers/src/at32f413_tmr.c ****   * @brief  enable or disable tmr one cycle mode
 734:./libraries/drivers/src/at32f413_tmr.c ****   * @param  tmr_x: select the tmr peripheral.
 735:./libraries/drivers/src/at32f413_tmr.c ****   *         this parameter can be one of the following values:
 736:./libraries/drivers/src/at32f413_tmr.c ****   *         TMR1, TMR2, TMR3, TMR4, TMR5, TMR8, TMR9
 737:./libraries/drivers/src/at32f413_tmr.c ****   * @param  new_state (TRUE or FALSE)
 738:./libraries/drivers/src/at32f413_tmr.c ****   * @retval none
 739:./libraries/drivers/src/at32f413_tmr.c ****   */
 740:./libraries/drivers/src/at32f413_tmr.c **** void tmr_one_cycle_mode_enable(tmr_type *tmr_x, confirm_state new_state)
 741:./libraries/drivers/src/at32f413_tmr.c **** {
 1363              		.loc 1 741 1 is_stmt 1 view -0
 1364              		.cfi_startproc
 1365              		@ args = 0, pretend = 0, frame = 0
 1366              		@ frame_needed = 0, uses_anonymous_args = 0
 1367              		@ link register save eliminated.
 742:./libraries/drivers/src/at32f413_tmr.c ****   /* tmr one cycle mode enable */
 743:./libraries/drivers/src/at32f413_tmr.c ****   tmr_x->ctrl1_bit.ocmen = new_state;
 1368              		.loc 1 743 3 view .LVU338
 1369              		.loc 1 743 26 is_stmt 0 view .LVU339
 1370 0000 0368     		ldr	r3, [r0]
 1371 0002 61F3C303 		bfi	r3, r1, #3, #1
 1372 0006 0360     		str	r3, [r0]
 744:./libraries/drivers/src/at32f413_tmr.c **** }
ARM GAS  C:\Users\J\AppData\Local\Temp\ccrWFtxe.s 			page 38


 1373              		.loc 1 744 1 view .LVU340
 1374 0008 7047     		bx	lr
 1375              		.cfi_endproc
 1376              	.LFE156:
 1378              		.section	.text.tmr_32_bit_function_enable,"ax",%progbits
 1379              		.align	1
 1380              		.global	tmr_32_bit_function_enable
 1381              		.syntax unified
 1382              		.thumb
 1383              		.thumb_func
 1384              		.fpu fpv4-sp-d16
 1386              	tmr_32_bit_function_enable:
 1387              	.LVL90:
 1388              	.LFB157:
 745:./libraries/drivers/src/at32f413_tmr.c **** 
 746:./libraries/drivers/src/at32f413_tmr.c **** /**
 747:./libraries/drivers/src/at32f413_tmr.c ****   * @brief  enable or disable  tmr 32 bit function(plus mode)
 748:./libraries/drivers/src/at32f413_tmr.c ****   * @param  tmr_x: select the tmr peripheral.
 749:./libraries/drivers/src/at32f413_tmr.c ****   *         this parameter can be one of the following values:
 750:./libraries/drivers/src/at32f413_tmr.c ****   *         TMR2, TMR5
 751:./libraries/drivers/src/at32f413_tmr.c ****   * @param  new_state (TRUE or FALSE)
 752:./libraries/drivers/src/at32f413_tmr.c ****   * @retval none
 753:./libraries/drivers/src/at32f413_tmr.c ****   */
 754:./libraries/drivers/src/at32f413_tmr.c **** void tmr_32_bit_function_enable (tmr_type *tmr_x, confirm_state new_state)
 755:./libraries/drivers/src/at32f413_tmr.c **** {
 1389              		.loc 1 755 1 is_stmt 1 view -0
 1390              		.cfi_startproc
 1391              		@ args = 0, pretend = 0, frame = 0
 1392              		@ frame_needed = 0, uses_anonymous_args = 0
 1393              		@ link register save eliminated.
 756:./libraries/drivers/src/at32f413_tmr.c ****   /* tmr 32 bit function(plus mode) enable,only for TMR2/TMR5 */
 757:./libraries/drivers/src/at32f413_tmr.c ****   if((tmr_x == TMR2) || (tmr_x == TMR5))
 1394              		.loc 1 757 3 view .LVU342
 1395              		.loc 1 757 5 is_stmt 0 view .LVU343
 1396 0000 B0F1804F 		cmp	r0, #1073741824
 1397 0004 02D0     		beq	.L103
 1398              		.loc 1 757 22 discriminator 1 view .LVU344
 1399 0006 044B     		ldr	r3, .L105
 1400 0008 9842     		cmp	r0, r3
 1401 000a 03D1     		bne	.L102
 1402              	.L103:
 758:./libraries/drivers/src/at32f413_tmr.c ****   {
 759:./libraries/drivers/src/at32f413_tmr.c ****     tmr_x->ctrl1_bit.pmen = new_state;
 1403              		.loc 1 759 5 is_stmt 1 view .LVU345
 1404              		.loc 1 759 27 is_stmt 0 view .LVU346
 1405 000c 0368     		ldr	r3, [r0]
 1406 000e 61F38A23 		bfi	r3, r1, #10, #1
 1407 0012 0360     		str	r3, [r0]
 1408              	.L102:
 760:./libraries/drivers/src/at32f413_tmr.c ****   }
 761:./libraries/drivers/src/at32f413_tmr.c **** }
 1409              		.loc 1 761 1 view .LVU347
 1410 0014 7047     		bx	lr
 1411              	.L106:
 1412 0016 00BF     		.align	2
 1413              	.L105:
 1414 0018 000C0040 		.word	1073744896
ARM GAS  C:\Users\J\AppData\Local\Temp\ccrWFtxe.s 			page 39


 1415              		.cfi_endproc
 1416              	.LFE157:
 1418              		.section	.text.tmr_overflow_request_source_set,"ax",%progbits
 1419              		.align	1
 1420              		.global	tmr_overflow_request_source_set
 1421              		.syntax unified
 1422              		.thumb
 1423              		.thumb_func
 1424              		.fpu fpv4-sp-d16
 1426              	tmr_overflow_request_source_set:
 1427              	.LVL91:
 1428              	.LFB158:
 762:./libraries/drivers/src/at32f413_tmr.c **** 
 763:./libraries/drivers/src/at32f413_tmr.c **** /**
 764:./libraries/drivers/src/at32f413_tmr.c ****   * @brief  select tmr the overflow event sources
 765:./libraries/drivers/src/at32f413_tmr.c ****   * @param  tmr_x: select the tmr peripheral.
 766:./libraries/drivers/src/at32f413_tmr.c ****   *         this parameter can be one of the following values:
 767:./libraries/drivers/src/at32f413_tmr.c ****   *         TMR1, TMR2, TMR3, TMR4, TMR5, TMR8, TMR9, TMR10,
 768:./libraries/drivers/src/at32f413_tmr.c ****   *         TMR11
 769:./libraries/drivers/src/at32f413_tmr.c ****   * @param  new_state (TRUE or FALSE)
 770:./libraries/drivers/src/at32f413_tmr.c ****   * @retval none
 771:./libraries/drivers/src/at32f413_tmr.c ****   */
 772:./libraries/drivers/src/at32f413_tmr.c **** void tmr_overflow_request_source_set(tmr_type *tmr_x, confirm_state new_state)
 773:./libraries/drivers/src/at32f413_tmr.c **** {
 1429              		.loc 1 773 1 is_stmt 1 view -0
 1430              		.cfi_startproc
 1431              		@ args = 0, pretend = 0, frame = 0
 1432              		@ frame_needed = 0, uses_anonymous_args = 0
 1433              		@ link register save eliminated.
 774:./libraries/drivers/src/at32f413_tmr.c ****   tmr_x->ctrl1_bit.ovfs = new_state;
 1434              		.loc 1 774 3 view .LVU349
 1435              		.loc 1 774 25 is_stmt 0 view .LVU350
 1436 0000 0368     		ldr	r3, [r0]
 1437 0002 61F38203 		bfi	r3, r1, #2, #1
 1438 0006 0360     		str	r3, [r0]
 775:./libraries/drivers/src/at32f413_tmr.c **** }
 1439              		.loc 1 775 1 view .LVU351
 1440 0008 7047     		bx	lr
 1441              		.cfi_endproc
 1442              	.LFE158:
 1444              		.section	.text.tmr_overflow_event_disable,"ax",%progbits
 1445              		.align	1
 1446              		.global	tmr_overflow_event_disable
 1447              		.syntax unified
 1448              		.thumb
 1449              		.thumb_func
 1450              		.fpu fpv4-sp-d16
 1452              	tmr_overflow_event_disable:
 1453              	.LVL92:
 1454              	.LFB159:
 776:./libraries/drivers/src/at32f413_tmr.c **** 
 777:./libraries/drivers/src/at32f413_tmr.c **** /**
 778:./libraries/drivers/src/at32f413_tmr.c ****   * @brief  enable or disable tmr overflow event generation
 779:./libraries/drivers/src/at32f413_tmr.c ****   * @param  tmr_x: select the tmr peripheral.
 780:./libraries/drivers/src/at32f413_tmr.c ****   *         this parameter can be one of the following values:
 781:./libraries/drivers/src/at32f413_tmr.c ****   *         TMR1, TMR2, TMR3, TMR4, TMR5, TMR8, TMR9, TMR10,
 782:./libraries/drivers/src/at32f413_tmr.c ****   *         TMR11
ARM GAS  C:\Users\J\AppData\Local\Temp\ccrWFtxe.s 			page 40


 783:./libraries/drivers/src/at32f413_tmr.c ****   * @param  new_state (TRUE or FALSE)
 784:./libraries/drivers/src/at32f413_tmr.c ****   * @retval none
 785:./libraries/drivers/src/at32f413_tmr.c ****   */
 786:./libraries/drivers/src/at32f413_tmr.c **** void tmr_overflow_event_disable(tmr_type *tmr_x, confirm_state new_state)
 787:./libraries/drivers/src/at32f413_tmr.c **** {
 1455              		.loc 1 787 1 is_stmt 1 view -0
 1456              		.cfi_startproc
 1457              		@ args = 0, pretend = 0, frame = 0
 1458              		@ frame_needed = 0, uses_anonymous_args = 0
 1459              		@ link register save eliminated.
 788:./libraries/drivers/src/at32f413_tmr.c ****   tmr_x->ctrl1_bit.ovfen = new_state;
 1460              		.loc 1 788 3 view .LVU353
 1461              		.loc 1 788 26 is_stmt 0 view .LVU354
 1462 0000 0368     		ldr	r3, [r0]
 1463 0002 61F34103 		bfi	r3, r1, #1, #1
 1464 0006 0360     		str	r3, [r0]
 789:./libraries/drivers/src/at32f413_tmr.c **** }
 1465              		.loc 1 789 1 view .LVU355
 1466 0008 7047     		bx	lr
 1467              		.cfi_endproc
 1468              	.LFE159:
 1470              		.section	.text.tmr_input_channel_init,"ax",%progbits
 1471              		.align	1
 1472              		.global	tmr_input_channel_init
 1473              		.syntax unified
 1474              		.thumb
 1475              		.thumb_func
 1476              		.fpu fpv4-sp-d16
 1478              	tmr_input_channel_init:
 1479              	.LVL93:
 1480              	.LFB160:
 790:./libraries/drivers/src/at32f413_tmr.c **** 
 791:./libraries/drivers/src/at32f413_tmr.c **** /**
 792:./libraries/drivers/src/at32f413_tmr.c ****   * @brief  init tmr input channel
 793:./libraries/drivers/src/at32f413_tmr.c ****   * @param  tmr_x: select the tmr peripheral.
 794:./libraries/drivers/src/at32f413_tmr.c ****   *         this parameter can be one of the following values:
 795:./libraries/drivers/src/at32f413_tmr.c ****   *         TMR1, TMR2, TMR3, TMR4, TMR5, TMR8, TMR9, TMR10,
 796:./libraries/drivers/src/at32f413_tmr.c ****   *         TMR11
 797:./libraries/drivers/src/at32f413_tmr.c ****   * @param  input_struct
 798:./libraries/drivers/src/at32f413_tmr.c ****   *         - to the structure of tmr_input_config_type
 799:./libraries/drivers/src/at32f413_tmr.c ****   * @param  divider_factor
 800:./libraries/drivers/src/at32f413_tmr.c ****   *         this parameter can be one of the following values:
 801:./libraries/drivers/src/at32f413_tmr.c ****   *         - TMR_CHANNEL_INPUT_DIV_1
 802:./libraries/drivers/src/at32f413_tmr.c ****   *         - TMR_CHANNEL_INPUT_DIV_2
 803:./libraries/drivers/src/at32f413_tmr.c ****   *         - TMR_CHANNEL_INPUT_DIV_4
 804:./libraries/drivers/src/at32f413_tmr.c ****   *         - TMR_CHANNEL_INPUT_DIV_8
 805:./libraries/drivers/src/at32f413_tmr.c ****   * @retval none
 806:./libraries/drivers/src/at32f413_tmr.c ****   */
 807:./libraries/drivers/src/at32f413_tmr.c **** void tmr_input_channel_init(tmr_type *tmr_x, tmr_input_config_type *input_struct,
 808:./libraries/drivers/src/at32f413_tmr.c ****                             tmr_channel_input_divider_type divider_factor)
 809:./libraries/drivers/src/at32f413_tmr.c **** {
 1481              		.loc 1 809 1 is_stmt 1 view -0
 1482              		.cfi_startproc
 1483              		@ args = 0, pretend = 0, frame = 0
 1484              		@ frame_needed = 0, uses_anonymous_args = 0
 1485              		@ link register save eliminated.
 1486              		.loc 1 809 1 is_stmt 0 view .LVU357
ARM GAS  C:\Users\J\AppData\Local\Temp\ccrWFtxe.s 			page 41


 1487 0000 10B4     		push	{r4}
 1488              	.LCFI2:
 1489              		.cfi_def_cfa_offset 4
 1490              		.cfi_offset 4, -4
 810:./libraries/drivers/src/at32f413_tmr.c ****   uint16_t channel = 0;
 1491              		.loc 1 810 3 is_stmt 1 view .LVU358
 1492              	.LVL94:
 811:./libraries/drivers/src/at32f413_tmr.c **** 
 812:./libraries/drivers/src/at32f413_tmr.c ****   /* get channel selected */
 813:./libraries/drivers/src/at32f413_tmr.c ****   channel = input_struct->input_channel_select;
 1493              		.loc 1 813 3 view .LVU359
 1494              		.loc 1 813 25 is_stmt 0 view .LVU360
 1495 0002 0B78     		ldrb	r3, [r1]	@ zero_extendqisi2
 1496              	.LVL95:
 814:./libraries/drivers/src/at32f413_tmr.c **** 
 815:./libraries/drivers/src/at32f413_tmr.c ****   switch(channel)
 1497              		.loc 1 815 3 is_stmt 1 view .LVU361
 1498 0004 062B     		cmp	r3, #6
 1499 0006 23D8     		bhi	.L109
 1500 0008 DFE803F0 		tbb	[pc, r3]
 1501              	.L112:
 1502 000c 04       		.byte	(.L115-.L112)/2
 1503 000d 22       		.byte	(.L109-.L112)/2
 1504 000e 25       		.byte	(.L114-.L112)/2
 1505 000f 22       		.byte	(.L109-.L112)/2
 1506 0010 44       		.byte	(.L113-.L112)/2
 1507 0011 22       		.byte	(.L109-.L112)/2
 1508 0012 63       		.byte	(.L111-.L112)/2
 1509 0013 00       		.p2align 1
 1510              	.L115:
 816:./libraries/drivers/src/at32f413_tmr.c ****   {
 817:./libraries/drivers/src/at32f413_tmr.c ****     case TMR_SELECT_CHANNEL_1:
 818:./libraries/drivers/src/at32f413_tmr.c ****       tmr_x->cctrl_bit.c1p        = (uint32_t)input_struct->input_polarity_select;
 1511              		.loc 1 818 7 view .LVU362
 1512              		.loc 1 818 59 is_stmt 0 view .LVU363
 1513 0014 4C78     		ldrb	r4, [r1, #1]	@ zero_extendqisi2
 1514              		.loc 1 818 35 view .LVU364
 1515 0016 036A     		ldr	r3, [r0, #32]
 1516              	.LVL96:
 1517              		.loc 1 818 35 view .LVU365
 1518 0018 64F34103 		bfi	r3, r4, #1, #1
 1519 001c 0362     		str	r3, [r0, #32]
 1520              	.LVL97:
 819:./libraries/drivers/src/at32f413_tmr.c ****       tmr_x->cctrl_bit.c1cp       = (input_struct->input_polarity_select & 0x2) >> 1;
 1521              		.loc 1 819 7 is_stmt 1 view .LVU366
 1522              		.loc 1 819 50 is_stmt 0 view .LVU367
 1523 001e 4B78     		ldrb	r3, [r1, #1]	@ zero_extendqisi2
 1524              		.loc 1 819 81 view .LVU368
 1525 0020 C3F34003 		ubfx	r3, r3, #1, #1
 1526              		.loc 1 819 35 view .LVU369
 1527 0024 046A     		ldr	r4, [r0, #32]
 1528 0026 63F3C304 		bfi	r4, r3, #3, #1
 1529 002a 0462     		str	r4, [r0, #32]
 820:./libraries/drivers/src/at32f413_tmr.c ****       tmr_x->cm1_input_bit.c1c    = input_struct->input_mapped_select;
 1530              		.loc 1 820 7 is_stmt 1 view .LVU370
 1531              		.loc 1 820 49 is_stmt 0 view .LVU371
 1532 002c 8C78     		ldrb	r4, [r1, #2]	@ zero_extendqisi2
ARM GAS  C:\Users\J\AppData\Local\Temp\ccrWFtxe.s 			page 42


 1533              		.loc 1 820 35 view .LVU372
 1534 002e 8369     		ldr	r3, [r0, #24]
 1535 0030 64F30103 		bfi	r3, r4, #0, #2
 1536 0034 8361     		str	r3, [r0, #24]
 821:./libraries/drivers/src/at32f413_tmr.c ****       tmr_x->cm1_input_bit.c1df   = input_struct->input_filter_value;
 1537              		.loc 1 821 7 is_stmt 1 view .LVU373
 1538              		.loc 1 821 49 is_stmt 0 view .LVU374
 1539 0036 C978     		ldrb	r1, [r1, #3]	@ zero_extendqisi2
 1540              	.LVL98:
 1541              		.loc 1 821 35 view .LVU375
 1542 0038 8369     		ldr	r3, [r0, #24]
 1543 003a 61F30713 		bfi	r3, r1, #4, #4
 1544 003e 8361     		str	r3, [r0, #24]
 822:./libraries/drivers/src/at32f413_tmr.c ****       tmr_x->cm1_input_bit.c1idiv = divider_factor;
 1545              		.loc 1 822 7 is_stmt 1 view .LVU376
 1546              		.loc 1 822 35 is_stmt 0 view .LVU377
 1547 0040 8369     		ldr	r3, [r0, #24]
 1548 0042 62F38303 		bfi	r3, r2, #2, #2
 1549 0046 8361     		str	r3, [r0, #24]
 823:./libraries/drivers/src/at32f413_tmr.c ****       tmr_x->cctrl_bit.c1en       = TRUE;
 1550              		.loc 1 823 7 is_stmt 1 view .LVU378
 1551              		.loc 1 823 35 is_stmt 0 view .LVU379
 1552 0048 036A     		ldr	r3, [r0, #32]
 1553 004a 43F00103 		orr	r3, r3, #1
 1554 004e 0362     		str	r3, [r0, #32]
 824:./libraries/drivers/src/at32f413_tmr.c ****       break;
 1555              		.loc 1 824 7 is_stmt 1 view .LVU380
 1556              	.L109:
 825:./libraries/drivers/src/at32f413_tmr.c **** 
 826:./libraries/drivers/src/at32f413_tmr.c ****     case TMR_SELECT_CHANNEL_2:
 827:./libraries/drivers/src/at32f413_tmr.c ****       tmr_x->cctrl_bit.c2p        = (uint32_t)input_struct->input_polarity_select;
 828:./libraries/drivers/src/at32f413_tmr.c ****       tmr_x->cctrl_bit.c2cp       = (input_struct->input_polarity_select & 0x2) >> 1;
 829:./libraries/drivers/src/at32f413_tmr.c ****       tmr_x->cm1_input_bit.c2c    = input_struct->input_mapped_select;
 830:./libraries/drivers/src/at32f413_tmr.c ****       tmr_x->cm1_input_bit.c2df   = input_struct->input_filter_value;
 831:./libraries/drivers/src/at32f413_tmr.c ****       tmr_x->cm1_input_bit.c2idiv = divider_factor;
 832:./libraries/drivers/src/at32f413_tmr.c ****       tmr_x->cctrl_bit.c2en       = TRUE;
 833:./libraries/drivers/src/at32f413_tmr.c ****       break;
 834:./libraries/drivers/src/at32f413_tmr.c **** 
 835:./libraries/drivers/src/at32f413_tmr.c ****     case TMR_SELECT_CHANNEL_3:
 836:./libraries/drivers/src/at32f413_tmr.c ****       tmr_x->cctrl_bit.c3p        = (uint32_t)input_struct->input_polarity_select;
 837:./libraries/drivers/src/at32f413_tmr.c ****       tmr_x->cctrl_bit.c3cp       = (input_struct->input_polarity_select & 0x2) >> 1;
 838:./libraries/drivers/src/at32f413_tmr.c ****       tmr_x->cm2_input_bit.c3c    = input_struct->input_mapped_select;
 839:./libraries/drivers/src/at32f413_tmr.c ****       tmr_x->cm2_input_bit.c3df   = input_struct->input_filter_value;
 840:./libraries/drivers/src/at32f413_tmr.c ****       tmr_x->cm2_input_bit.c3idiv = divider_factor;
 841:./libraries/drivers/src/at32f413_tmr.c ****       tmr_x->cctrl_bit.c3en       = TRUE;
 842:./libraries/drivers/src/at32f413_tmr.c ****       break;
 843:./libraries/drivers/src/at32f413_tmr.c **** 
 844:./libraries/drivers/src/at32f413_tmr.c ****     case TMR_SELECT_CHANNEL_4:
 845:./libraries/drivers/src/at32f413_tmr.c ****       tmr_x->cctrl_bit.c4p        = (uint32_t)input_struct->input_polarity_select;
 846:./libraries/drivers/src/at32f413_tmr.c ****       tmr_x->cm2_input_bit.c4c    = input_struct->input_mapped_select;
 847:./libraries/drivers/src/at32f413_tmr.c ****       tmr_x->cm2_input_bit.c4df   = input_struct->input_filter_value;
 848:./libraries/drivers/src/at32f413_tmr.c ****       tmr_x->cm2_input_bit.c4idiv = divider_factor;
 849:./libraries/drivers/src/at32f413_tmr.c ****       tmr_x->cctrl_bit.c4en       = TRUE;
 850:./libraries/drivers/src/at32f413_tmr.c ****       break;
 851:./libraries/drivers/src/at32f413_tmr.c **** 
 852:./libraries/drivers/src/at32f413_tmr.c ****     default:
 853:./libraries/drivers/src/at32f413_tmr.c ****       break;
ARM GAS  C:\Users\J\AppData\Local\Temp\ccrWFtxe.s 			page 43


 854:./libraries/drivers/src/at32f413_tmr.c ****   }
 855:./libraries/drivers/src/at32f413_tmr.c **** }
 1557              		.loc 1 855 1 is_stmt 0 view .LVU381
 1558 0050 5DF8044B 		ldr	r4, [sp], #4
 1559              	.LCFI3:
 1560              		.cfi_remember_state
 1561              		.cfi_restore 4
 1562              		.cfi_def_cfa_offset 0
 1563 0054 7047     		bx	lr
 1564              	.LVL99:
 1565              	.L114:
 1566              	.LCFI4:
 1567              		.cfi_restore_state
 827:./libraries/drivers/src/at32f413_tmr.c ****       tmr_x->cctrl_bit.c2cp       = (input_struct->input_polarity_select & 0x2) >> 1;
 1568              		.loc 1 827 7 is_stmt 1 view .LVU382
 827:./libraries/drivers/src/at32f413_tmr.c ****       tmr_x->cctrl_bit.c2cp       = (input_struct->input_polarity_select & 0x2) >> 1;
 1569              		.loc 1 827 59 is_stmt 0 view .LVU383
 1570 0056 4C78     		ldrb	r4, [r1, #1]	@ zero_extendqisi2
 827:./libraries/drivers/src/at32f413_tmr.c ****       tmr_x->cctrl_bit.c2cp       = (input_struct->input_polarity_select & 0x2) >> 1;
 1571              		.loc 1 827 35 view .LVU384
 1572 0058 036A     		ldr	r3, [r0, #32]
 1573              	.LVL100:
 827:./libraries/drivers/src/at32f413_tmr.c ****       tmr_x->cctrl_bit.c2cp       = (input_struct->input_polarity_select & 0x2) >> 1;
 1574              		.loc 1 827 35 view .LVU385
 1575 005a 64F34513 		bfi	r3, r4, #5, #1
 1576 005e 0362     		str	r3, [r0, #32]
 1577              	.LVL101:
 828:./libraries/drivers/src/at32f413_tmr.c ****       tmr_x->cm1_input_bit.c2c    = input_struct->input_mapped_select;
 1578              		.loc 1 828 7 is_stmt 1 view .LVU386
 828:./libraries/drivers/src/at32f413_tmr.c ****       tmr_x->cm1_input_bit.c2c    = input_struct->input_mapped_select;
 1579              		.loc 1 828 50 is_stmt 0 view .LVU387
 1580 0060 4B78     		ldrb	r3, [r1, #1]	@ zero_extendqisi2
 828:./libraries/drivers/src/at32f413_tmr.c ****       tmr_x->cm1_input_bit.c2c    = input_struct->input_mapped_select;
 1581              		.loc 1 828 81 view .LVU388
 1582 0062 C3F34003 		ubfx	r3, r3, #1, #1
 828:./libraries/drivers/src/at32f413_tmr.c ****       tmr_x->cm1_input_bit.c2c    = input_struct->input_mapped_select;
 1583              		.loc 1 828 35 view .LVU389
 1584 0066 046A     		ldr	r4, [r0, #32]
 1585 0068 63F3C714 		bfi	r4, r3, #7, #1
 1586 006c 0462     		str	r4, [r0, #32]
 829:./libraries/drivers/src/at32f413_tmr.c ****       tmr_x->cm1_input_bit.c2df   = input_struct->input_filter_value;
 1587              		.loc 1 829 7 is_stmt 1 view .LVU390
 829:./libraries/drivers/src/at32f413_tmr.c ****       tmr_x->cm1_input_bit.c2df   = input_struct->input_filter_value;
 1588              		.loc 1 829 49 is_stmt 0 view .LVU391
 1589 006e 8C78     		ldrb	r4, [r1, #2]	@ zero_extendqisi2
 829:./libraries/drivers/src/at32f413_tmr.c ****       tmr_x->cm1_input_bit.c2df   = input_struct->input_filter_value;
 1590              		.loc 1 829 35 view .LVU392
 1591 0070 8369     		ldr	r3, [r0, #24]
 1592 0072 64F30923 		bfi	r3, r4, #8, #2
 1593 0076 8361     		str	r3, [r0, #24]
 830:./libraries/drivers/src/at32f413_tmr.c ****       tmr_x->cm1_input_bit.c2idiv = divider_factor;
 1594              		.loc 1 830 7 is_stmt 1 view .LVU393
 830:./libraries/drivers/src/at32f413_tmr.c ****       tmr_x->cm1_input_bit.c2idiv = divider_factor;
 1595              		.loc 1 830 49 is_stmt 0 view .LVU394
 1596 0078 C978     		ldrb	r1, [r1, #3]	@ zero_extendqisi2
 1597              	.LVL102:
 830:./libraries/drivers/src/at32f413_tmr.c ****       tmr_x->cm1_input_bit.c2idiv = divider_factor;
ARM GAS  C:\Users\J\AppData\Local\Temp\ccrWFtxe.s 			page 44


 1598              		.loc 1 830 35 view .LVU395
 1599 007a 8369     		ldr	r3, [r0, #24]
 1600 007c 61F30F33 		bfi	r3, r1, #12, #4
 1601 0080 8361     		str	r3, [r0, #24]
 831:./libraries/drivers/src/at32f413_tmr.c ****       tmr_x->cctrl_bit.c2en       = TRUE;
 1602              		.loc 1 831 7 is_stmt 1 view .LVU396
 831:./libraries/drivers/src/at32f413_tmr.c ****       tmr_x->cctrl_bit.c2en       = TRUE;
 1603              		.loc 1 831 35 is_stmt 0 view .LVU397
 1604 0082 8369     		ldr	r3, [r0, #24]
 1605 0084 62F38B23 		bfi	r3, r2, #10, #2
 1606 0088 8361     		str	r3, [r0, #24]
 832:./libraries/drivers/src/at32f413_tmr.c ****       break;
 1607              		.loc 1 832 7 is_stmt 1 view .LVU398
 832:./libraries/drivers/src/at32f413_tmr.c ****       break;
 1608              		.loc 1 832 35 is_stmt 0 view .LVU399
 1609 008a 036A     		ldr	r3, [r0, #32]
 1610 008c 43F01003 		orr	r3, r3, #16
 1611 0090 0362     		str	r3, [r0, #32]
 833:./libraries/drivers/src/at32f413_tmr.c **** 
 1612              		.loc 1 833 7 is_stmt 1 view .LVU400
 1613 0092 DDE7     		b	.L109
 1614              	.LVL103:
 1615              	.L113:
 836:./libraries/drivers/src/at32f413_tmr.c ****       tmr_x->cctrl_bit.c3cp       = (input_struct->input_polarity_select & 0x2) >> 1;
 1616              		.loc 1 836 7 view .LVU401
 836:./libraries/drivers/src/at32f413_tmr.c ****       tmr_x->cctrl_bit.c3cp       = (input_struct->input_polarity_select & 0x2) >> 1;
 1617              		.loc 1 836 59 is_stmt 0 view .LVU402
 1618 0094 4C78     		ldrb	r4, [r1, #1]	@ zero_extendqisi2
 836:./libraries/drivers/src/at32f413_tmr.c ****       tmr_x->cctrl_bit.c3cp       = (input_struct->input_polarity_select & 0x2) >> 1;
 1619              		.loc 1 836 35 view .LVU403
 1620 0096 036A     		ldr	r3, [r0, #32]
 1621              	.LVL104:
 836:./libraries/drivers/src/at32f413_tmr.c ****       tmr_x->cctrl_bit.c3cp       = (input_struct->input_polarity_select & 0x2) >> 1;
 1622              		.loc 1 836 35 view .LVU404
 1623 0098 64F34923 		bfi	r3, r4, #9, #1
 1624 009c 0362     		str	r3, [r0, #32]
 1625              	.LVL105:
 837:./libraries/drivers/src/at32f413_tmr.c ****       tmr_x->cm2_input_bit.c3c    = input_struct->input_mapped_select;
 1626              		.loc 1 837 7 is_stmt 1 view .LVU405
 837:./libraries/drivers/src/at32f413_tmr.c ****       tmr_x->cm2_input_bit.c3c    = input_struct->input_mapped_select;
 1627              		.loc 1 837 50 is_stmt 0 view .LVU406
 1628 009e 4B78     		ldrb	r3, [r1, #1]	@ zero_extendqisi2
 837:./libraries/drivers/src/at32f413_tmr.c ****       tmr_x->cm2_input_bit.c3c    = input_struct->input_mapped_select;
 1629              		.loc 1 837 81 view .LVU407
 1630 00a0 C3F34003 		ubfx	r3, r3, #1, #1
 837:./libraries/drivers/src/at32f413_tmr.c ****       tmr_x->cm2_input_bit.c3c    = input_struct->input_mapped_select;
 1631              		.loc 1 837 35 view .LVU408
 1632 00a4 046A     		ldr	r4, [r0, #32]
 1633 00a6 63F3CB24 		bfi	r4, r3, #11, #1
 1634 00aa 0462     		str	r4, [r0, #32]
 838:./libraries/drivers/src/at32f413_tmr.c ****       tmr_x->cm2_input_bit.c3df   = input_struct->input_filter_value;
 1635              		.loc 1 838 7 is_stmt 1 view .LVU409
 838:./libraries/drivers/src/at32f413_tmr.c ****       tmr_x->cm2_input_bit.c3df   = input_struct->input_filter_value;
 1636              		.loc 1 838 49 is_stmt 0 view .LVU410
 1637 00ac 8C78     		ldrb	r4, [r1, #2]	@ zero_extendqisi2
 838:./libraries/drivers/src/at32f413_tmr.c ****       tmr_x->cm2_input_bit.c3df   = input_struct->input_filter_value;
 1638              		.loc 1 838 35 view .LVU411
ARM GAS  C:\Users\J\AppData\Local\Temp\ccrWFtxe.s 			page 45


 1639 00ae C369     		ldr	r3, [r0, #28]
 1640 00b0 64F30103 		bfi	r3, r4, #0, #2
 1641 00b4 C361     		str	r3, [r0, #28]
 839:./libraries/drivers/src/at32f413_tmr.c ****       tmr_x->cm2_input_bit.c3idiv = divider_factor;
 1642              		.loc 1 839 7 is_stmt 1 view .LVU412
 839:./libraries/drivers/src/at32f413_tmr.c ****       tmr_x->cm2_input_bit.c3idiv = divider_factor;
 1643              		.loc 1 839 49 is_stmt 0 view .LVU413
 1644 00b6 C978     		ldrb	r1, [r1, #3]	@ zero_extendqisi2
 1645              	.LVL106:
 839:./libraries/drivers/src/at32f413_tmr.c ****       tmr_x->cm2_input_bit.c3idiv = divider_factor;
 1646              		.loc 1 839 35 view .LVU414
 1647 00b8 C369     		ldr	r3, [r0, #28]
 1648 00ba 61F30713 		bfi	r3, r1, #4, #4
 1649 00be C361     		str	r3, [r0, #28]
 840:./libraries/drivers/src/at32f413_tmr.c ****       tmr_x->cctrl_bit.c3en       = TRUE;
 1650              		.loc 1 840 7 is_stmt 1 view .LVU415
 840:./libraries/drivers/src/at32f413_tmr.c ****       tmr_x->cctrl_bit.c3en       = TRUE;
 1651              		.loc 1 840 35 is_stmt 0 view .LVU416
 1652 00c0 C369     		ldr	r3, [r0, #28]
 1653 00c2 62F38303 		bfi	r3, r2, #2, #2
 1654 00c6 C361     		str	r3, [r0, #28]
 841:./libraries/drivers/src/at32f413_tmr.c ****       break;
 1655              		.loc 1 841 7 is_stmt 1 view .LVU417
 841:./libraries/drivers/src/at32f413_tmr.c ****       break;
 1656              		.loc 1 841 35 is_stmt 0 view .LVU418
 1657 00c8 036A     		ldr	r3, [r0, #32]
 1658 00ca 43F48073 		orr	r3, r3, #256
 1659 00ce 0362     		str	r3, [r0, #32]
 842:./libraries/drivers/src/at32f413_tmr.c **** 
 1660              		.loc 1 842 7 is_stmt 1 view .LVU419
 1661 00d0 BEE7     		b	.L109
 1662              	.LVL107:
 1663              	.L111:
 845:./libraries/drivers/src/at32f413_tmr.c ****       tmr_x->cm2_input_bit.c4c    = input_struct->input_mapped_select;
 1664              		.loc 1 845 7 view .LVU420
 845:./libraries/drivers/src/at32f413_tmr.c ****       tmr_x->cm2_input_bit.c4c    = input_struct->input_mapped_select;
 1665              		.loc 1 845 59 is_stmt 0 view .LVU421
 1666 00d2 4C78     		ldrb	r4, [r1, #1]	@ zero_extendqisi2
 845:./libraries/drivers/src/at32f413_tmr.c ****       tmr_x->cm2_input_bit.c4c    = input_struct->input_mapped_select;
 1667              		.loc 1 845 35 view .LVU422
 1668 00d4 036A     		ldr	r3, [r0, #32]
 1669              	.LVL108:
 845:./libraries/drivers/src/at32f413_tmr.c ****       tmr_x->cm2_input_bit.c4c    = input_struct->input_mapped_select;
 1670              		.loc 1 845 35 view .LVU423
 1671 00d6 64F34D33 		bfi	r3, r4, #13, #1
 1672 00da 0362     		str	r3, [r0, #32]
 1673              	.LVL109:
 846:./libraries/drivers/src/at32f413_tmr.c ****       tmr_x->cm2_input_bit.c4df   = input_struct->input_filter_value;
 1674              		.loc 1 846 7 is_stmt 1 view .LVU424
 846:./libraries/drivers/src/at32f413_tmr.c ****       tmr_x->cm2_input_bit.c4df   = input_struct->input_filter_value;
 1675              		.loc 1 846 49 is_stmt 0 view .LVU425
 1676 00dc 8C78     		ldrb	r4, [r1, #2]	@ zero_extendqisi2
 846:./libraries/drivers/src/at32f413_tmr.c ****       tmr_x->cm2_input_bit.c4df   = input_struct->input_filter_value;
 1677              		.loc 1 846 35 view .LVU426
 1678 00de C369     		ldr	r3, [r0, #28]
 1679 00e0 64F30923 		bfi	r3, r4, #8, #2
 1680 00e4 C361     		str	r3, [r0, #28]
ARM GAS  C:\Users\J\AppData\Local\Temp\ccrWFtxe.s 			page 46


 847:./libraries/drivers/src/at32f413_tmr.c ****       tmr_x->cm2_input_bit.c4idiv = divider_factor;
 1681              		.loc 1 847 7 is_stmt 1 view .LVU427
 847:./libraries/drivers/src/at32f413_tmr.c ****       tmr_x->cm2_input_bit.c4idiv = divider_factor;
 1682              		.loc 1 847 49 is_stmt 0 view .LVU428
 1683 00e6 C978     		ldrb	r1, [r1, #3]	@ zero_extendqisi2
 1684              	.LVL110:
 847:./libraries/drivers/src/at32f413_tmr.c ****       tmr_x->cm2_input_bit.c4idiv = divider_factor;
 1685              		.loc 1 847 35 view .LVU429
 1686 00e8 C369     		ldr	r3, [r0, #28]
 1687 00ea 61F30F33 		bfi	r3, r1, #12, #4
 1688 00ee C361     		str	r3, [r0, #28]
 848:./libraries/drivers/src/at32f413_tmr.c ****       tmr_x->cctrl_bit.c4en       = TRUE;
 1689              		.loc 1 848 7 is_stmt 1 view .LVU430
 848:./libraries/drivers/src/at32f413_tmr.c ****       tmr_x->cctrl_bit.c4en       = TRUE;
 1690              		.loc 1 848 35 is_stmt 0 view .LVU431
 1691 00f0 C369     		ldr	r3, [r0, #28]
 1692 00f2 62F38B23 		bfi	r3, r2, #10, #2
 1693 00f6 C361     		str	r3, [r0, #28]
 849:./libraries/drivers/src/at32f413_tmr.c ****       break;
 1694              		.loc 1 849 7 is_stmt 1 view .LVU432
 849:./libraries/drivers/src/at32f413_tmr.c ****       break;
 1695              		.loc 1 849 35 is_stmt 0 view .LVU433
 1696 00f8 036A     		ldr	r3, [r0, #32]
 1697 00fa 43F48053 		orr	r3, r3, #4096
 1698 00fe 0362     		str	r3, [r0, #32]
 850:./libraries/drivers/src/at32f413_tmr.c **** 
 1699              		.loc 1 850 7 is_stmt 1 view .LVU434
 1700              		.loc 1 855 1 is_stmt 0 view .LVU435
 1701 0100 A6E7     		b	.L109
 1702              		.cfi_endproc
 1703              	.LFE160:
 1705              		.section	.text.tmr_channel_enable,"ax",%progbits
 1706              		.align	1
 1707              		.global	tmr_channel_enable
 1708              		.syntax unified
 1709              		.thumb
 1710              		.thumb_func
 1711              		.fpu fpv4-sp-d16
 1713              	tmr_channel_enable:
 1714              	.LVL111:
 1715              	.LFB161:
 856:./libraries/drivers/src/at32f413_tmr.c **** 
 857:./libraries/drivers/src/at32f413_tmr.c **** /**
 858:./libraries/drivers/src/at32f413_tmr.c ****   * @brief  tmr channel enable
 859:./libraries/drivers/src/at32f413_tmr.c ****   * @param  tmr_x: select the tmr peripheral.
 860:./libraries/drivers/src/at32f413_tmr.c ****   *         this parameter can be one of the following values:
 861:./libraries/drivers/src/at32f413_tmr.c ****   *         TMR1, TMR2, TMR3, TMR4, TMR5, TMR8, TMR9, TMR10,
 862:./libraries/drivers/src/at32f413_tmr.c ****   *         TMR11
 863:./libraries/drivers/src/at32f413_tmr.c ****   * @param  tmr_channel
 864:./libraries/drivers/src/at32f413_tmr.c ****   *         this parameter can be one of the following values:
 865:./libraries/drivers/src/at32f413_tmr.c ****   *         - TMR_SELECT_CHANNEL_1
 866:./libraries/drivers/src/at32f413_tmr.c ****   *         - TMR_SELECT_CHANNEL_1C
 867:./libraries/drivers/src/at32f413_tmr.c ****   *         - TMR_SELECT_CHANNEL_2
 868:./libraries/drivers/src/at32f413_tmr.c ****   *         - TMR_SELECT_CHANNEL_2C
 869:./libraries/drivers/src/at32f413_tmr.c ****   *         - TMR_SELECT_CHANNEL_3
 870:./libraries/drivers/src/at32f413_tmr.c ****   *         - TMR_SELECT_CHANNEL_3C
 871:./libraries/drivers/src/at32f413_tmr.c ****   *         - TMR_SELECT_CHANNEL_4
ARM GAS  C:\Users\J\AppData\Local\Temp\ccrWFtxe.s 			page 47


 872:./libraries/drivers/src/at32f413_tmr.c ****   * @param  new_state (TRUE or FALSE)
 873:./libraries/drivers/src/at32f413_tmr.c ****   * @retval none
 874:./libraries/drivers/src/at32f413_tmr.c ****   */
 875:./libraries/drivers/src/at32f413_tmr.c **** void tmr_channel_enable(tmr_type *tmr_x, tmr_channel_select_type tmr_channel, confirm_state new_sta
 876:./libraries/drivers/src/at32f413_tmr.c **** {
 1716              		.loc 1 876 1 is_stmt 1 view -0
 1717              		.cfi_startproc
 1718              		@ args = 0, pretend = 0, frame = 0
 1719              		@ frame_needed = 0, uses_anonymous_args = 0
 1720              		@ link register save eliminated.
 877:./libraries/drivers/src/at32f413_tmr.c ****   uint16_t channel;
 1721              		.loc 1 877 3 view .LVU437
 878:./libraries/drivers/src/at32f413_tmr.c **** 
 879:./libraries/drivers/src/at32f413_tmr.c ****   channel = tmr_channel;
 1722              		.loc 1 879 3 view .LVU438
 880:./libraries/drivers/src/at32f413_tmr.c **** 
 881:./libraries/drivers/src/at32f413_tmr.c ****   switch(channel)
 1723              		.loc 1 881 3 view .LVU439
 1724 0000 0629     		cmp	r1, #6
 1725 0002 27D8     		bhi	.L117
 1726 0004 DFE801F0 		tbb	[pc, r1]
 1727              	.L120:
 1728 0008 04       		.byte	(.L126-.L120)/2
 1729 0009 09       		.byte	(.L125-.L120)/2
 1730 000a 0E       		.byte	(.L124-.L120)/2
 1731 000b 13       		.byte	(.L123-.L120)/2
 1732 000c 18       		.byte	(.L122-.L120)/2
 1733 000d 1D       		.byte	(.L121-.L120)/2
 1734 000e 22       		.byte	(.L119-.L120)/2
 1735 000f 00       		.p2align 1
 1736              	.L126:
 882:./libraries/drivers/src/at32f413_tmr.c ****   {
 883:./libraries/drivers/src/at32f413_tmr.c ****     case TMR_SELECT_CHANNEL_1:
 884:./libraries/drivers/src/at32f413_tmr.c ****       tmr_x->cctrl_bit.c1en         = new_state;
 1737              		.loc 1 884 7 view .LVU440
 1738              		.loc 1 884 37 is_stmt 0 view .LVU441
 1739 0010 036A     		ldr	r3, [r0, #32]
 1740 0012 62F30003 		bfi	r3, r2, #0, #1
 1741 0016 0362     		str	r3, [r0, #32]
 885:./libraries/drivers/src/at32f413_tmr.c ****       break;
 1742              		.loc 1 885 7 is_stmt 1 view .LVU442
 1743 0018 7047     		bx	lr
 1744              	.L125:
 886:./libraries/drivers/src/at32f413_tmr.c **** 
 887:./libraries/drivers/src/at32f413_tmr.c ****     case TMR_SELECT_CHANNEL_1C:
 888:./libraries/drivers/src/at32f413_tmr.c ****       tmr_x->cctrl_bit.c1cen        = new_state;
 1745              		.loc 1 888 7 view .LVU443
 1746              		.loc 1 888 37 is_stmt 0 view .LVU444
 1747 001a 036A     		ldr	r3, [r0, #32]
 1748 001c 62F38203 		bfi	r3, r2, #2, #1
 1749 0020 0362     		str	r3, [r0, #32]
 889:./libraries/drivers/src/at32f413_tmr.c ****       break;
 1750              		.loc 1 889 7 is_stmt 1 view .LVU445
 1751 0022 7047     		bx	lr
 1752              	.L124:
 890:./libraries/drivers/src/at32f413_tmr.c **** 
 891:./libraries/drivers/src/at32f413_tmr.c ****     case TMR_SELECT_CHANNEL_2:
ARM GAS  C:\Users\J\AppData\Local\Temp\ccrWFtxe.s 			page 48


 892:./libraries/drivers/src/at32f413_tmr.c ****       tmr_x->cctrl_bit.c2en         = new_state;
 1753              		.loc 1 892 7 view .LVU446
 1754              		.loc 1 892 37 is_stmt 0 view .LVU447
 1755 0024 036A     		ldr	r3, [r0, #32]
 1756 0026 62F30413 		bfi	r3, r2, #4, #1
 1757 002a 0362     		str	r3, [r0, #32]
 893:./libraries/drivers/src/at32f413_tmr.c ****       break;
 1758              		.loc 1 893 7 is_stmt 1 view .LVU448
 1759 002c 7047     		bx	lr
 1760              	.L123:
 894:./libraries/drivers/src/at32f413_tmr.c **** 
 895:./libraries/drivers/src/at32f413_tmr.c ****     case TMR_SELECT_CHANNEL_2C:
 896:./libraries/drivers/src/at32f413_tmr.c ****       tmr_x->cctrl_bit.c2cen        = new_state;
 1761              		.loc 1 896 7 view .LVU449
 1762              		.loc 1 896 37 is_stmt 0 view .LVU450
 1763 002e 036A     		ldr	r3, [r0, #32]
 1764 0030 62F38613 		bfi	r3, r2, #6, #1
 1765 0034 0362     		str	r3, [r0, #32]
 897:./libraries/drivers/src/at32f413_tmr.c ****       break;
 1766              		.loc 1 897 7 is_stmt 1 view .LVU451
 1767 0036 7047     		bx	lr
 1768              	.L122:
 898:./libraries/drivers/src/at32f413_tmr.c **** 
 899:./libraries/drivers/src/at32f413_tmr.c ****     case TMR_SELECT_CHANNEL_3:
 900:./libraries/drivers/src/at32f413_tmr.c ****       tmr_x->cctrl_bit.c3en         = new_state;
 1769              		.loc 1 900 7 view .LVU452
 1770              		.loc 1 900 37 is_stmt 0 view .LVU453
 1771 0038 036A     		ldr	r3, [r0, #32]
 1772 003a 62F30823 		bfi	r3, r2, #8, #1
 1773 003e 0362     		str	r3, [r0, #32]
 901:./libraries/drivers/src/at32f413_tmr.c ****       break;
 1774              		.loc 1 901 7 is_stmt 1 view .LVU454
 1775 0040 7047     		bx	lr
 1776              	.L121:
 902:./libraries/drivers/src/at32f413_tmr.c **** 
 903:./libraries/drivers/src/at32f413_tmr.c ****     case TMR_SELECT_CHANNEL_3C:
 904:./libraries/drivers/src/at32f413_tmr.c ****       tmr_x->cctrl_bit.c3cen        = new_state;
 1777              		.loc 1 904 7 view .LVU455
 1778              		.loc 1 904 37 is_stmt 0 view .LVU456
 1779 0042 036A     		ldr	r3, [r0, #32]
 1780 0044 62F38A23 		bfi	r3, r2, #10, #1
 1781 0048 0362     		str	r3, [r0, #32]
 905:./libraries/drivers/src/at32f413_tmr.c ****       break;
 1782              		.loc 1 905 7 is_stmt 1 view .LVU457
 1783 004a 7047     		bx	lr
 1784              	.L119:
 906:./libraries/drivers/src/at32f413_tmr.c **** 
 907:./libraries/drivers/src/at32f413_tmr.c ****     case TMR_SELECT_CHANNEL_4:
 908:./libraries/drivers/src/at32f413_tmr.c ****       tmr_x->cctrl_bit.c4en         = new_state;
 1785              		.loc 1 908 7 view .LVU458
 1786              		.loc 1 908 37 is_stmt 0 view .LVU459
 1787 004c 036A     		ldr	r3, [r0, #32]
 1788 004e 62F30C33 		bfi	r3, r2, #12, #1
 1789 0052 0362     		str	r3, [r0, #32]
 909:./libraries/drivers/src/at32f413_tmr.c ****       break;
 1790              		.loc 1 909 7 is_stmt 1 view .LVU460
 1791              	.L117:
ARM GAS  C:\Users\J\AppData\Local\Temp\ccrWFtxe.s 			page 49


 910:./libraries/drivers/src/at32f413_tmr.c **** 
 911:./libraries/drivers/src/at32f413_tmr.c ****     default:
 912:./libraries/drivers/src/at32f413_tmr.c ****       break;
 913:./libraries/drivers/src/at32f413_tmr.c ****   }
 914:./libraries/drivers/src/at32f413_tmr.c **** }
 1792              		.loc 1 914 1 is_stmt 0 view .LVU461
 1793 0054 7047     		bx	lr
 1794              		.cfi_endproc
 1795              	.LFE161:
 1797              		.section	.text.tmr_input_channel_filter_set,"ax",%progbits
 1798              		.align	1
 1799              		.global	tmr_input_channel_filter_set
 1800              		.syntax unified
 1801              		.thumb
 1802              		.thumb_func
 1803              		.fpu fpv4-sp-d16
 1805              	tmr_input_channel_filter_set:
 1806              	.LVL112:
 1807              	.LFB162:
 915:./libraries/drivers/src/at32f413_tmr.c **** 
 916:./libraries/drivers/src/at32f413_tmr.c **** /**
 917:./libraries/drivers/src/at32f413_tmr.c ****   * @brief  set tmr input channel filter
 918:./libraries/drivers/src/at32f413_tmr.c ****   * @param  tmr_x: select the tmr peripheral.
 919:./libraries/drivers/src/at32f413_tmr.c ****   *         this parameter can be one of the following values:
 920:./libraries/drivers/src/at32f413_tmr.c ****   *         TMR1, TMR2, TMR3, TMR4, TMR5, TMR8, TMR9, TMR10,
 921:./libraries/drivers/src/at32f413_tmr.c ****   *         TMR11
 922:./libraries/drivers/src/at32f413_tmr.c ****   * @param  tmr_channel
 923:./libraries/drivers/src/at32f413_tmr.c ****   *         this parameter can be one of the following values:
 924:./libraries/drivers/src/at32f413_tmr.c ****   *         - TMR_SELECT_CHANNEL_1
 925:./libraries/drivers/src/at32f413_tmr.c ****   *         - TMR_SELECT_CHANNEL_2
 926:./libraries/drivers/src/at32f413_tmr.c ****   *         - TMR_SELECT_CHANNEL_3
 927:./libraries/drivers/src/at32f413_tmr.c ****   *         - TMR_SELECT_CHANNEL_4
 928:./libraries/drivers/src/at32f413_tmr.c ****   * @param  filter_value (0x0~0xf)
 929:./libraries/drivers/src/at32f413_tmr.c ****   * @retval none
 930:./libraries/drivers/src/at32f413_tmr.c ****   */
 931:./libraries/drivers/src/at32f413_tmr.c **** void tmr_input_channel_filter_set(tmr_type *tmr_x, tmr_channel_select_type tmr_channel,
 932:./libraries/drivers/src/at32f413_tmr.c ****                                   uint16_t filter_value)
 933:./libraries/drivers/src/at32f413_tmr.c **** {
 1808              		.loc 1 933 1 is_stmt 1 view -0
 1809              		.cfi_startproc
 1810              		@ args = 0, pretend = 0, frame = 0
 1811              		@ frame_needed = 0, uses_anonymous_args = 0
 1812              		@ link register save eliminated.
 934:./libraries/drivers/src/at32f413_tmr.c ****   uint16_t channel;
 1813              		.loc 1 934 3 view .LVU463
 935:./libraries/drivers/src/at32f413_tmr.c **** 
 936:./libraries/drivers/src/at32f413_tmr.c ****   channel = tmr_channel;
 1814              		.loc 1 936 3 view .LVU464
 937:./libraries/drivers/src/at32f413_tmr.c **** 
 938:./libraries/drivers/src/at32f413_tmr.c ****   switch(channel)
 1815              		.loc 1 938 3 view .LVU465
 1816 0000 0629     		cmp	r1, #6
 1817 0002 18D8     		bhi	.L127
 1818 0004 DFE801F0 		tbb	[pc, r1]
 1819              	.L130:
 1820 0008 04       		.byte	(.L133-.L130)/2
 1821 0009 17       		.byte	(.L127-.L130)/2
ARM GAS  C:\Users\J\AppData\Local\Temp\ccrWFtxe.s 			page 50


 1822 000a 09       		.byte	(.L132-.L130)/2
 1823 000b 17       		.byte	(.L127-.L130)/2
 1824 000c 0E       		.byte	(.L131-.L130)/2
 1825 000d 17       		.byte	(.L127-.L130)/2
 1826 000e 13       		.byte	(.L129-.L130)/2
 1827 000f 00       		.p2align 1
 1828              	.L133:
 939:./libraries/drivers/src/at32f413_tmr.c ****   {
 940:./libraries/drivers/src/at32f413_tmr.c ****     case TMR_SELECT_CHANNEL_1:
 941:./libraries/drivers/src/at32f413_tmr.c ****       tmr_x->cm1_input_bit.c1df = filter_value;
 1829              		.loc 1 941 7 view .LVU466
 1830              		.loc 1 941 33 is_stmt 0 view .LVU467
 1831 0010 8369     		ldr	r3, [r0, #24]
 1832 0012 62F30713 		bfi	r3, r2, #4, #4
 1833 0016 8361     		str	r3, [r0, #24]
 942:./libraries/drivers/src/at32f413_tmr.c ****       break;
 1834              		.loc 1 942 7 is_stmt 1 view .LVU468
 1835 0018 7047     		bx	lr
 1836              	.L132:
 943:./libraries/drivers/src/at32f413_tmr.c **** 
 944:./libraries/drivers/src/at32f413_tmr.c ****     case TMR_SELECT_CHANNEL_2:
 945:./libraries/drivers/src/at32f413_tmr.c ****       tmr_x->cm1_input_bit.c2df = filter_value;
 1837              		.loc 1 945 7 view .LVU469
 1838              		.loc 1 945 33 is_stmt 0 view .LVU470
 1839 001a 8369     		ldr	r3, [r0, #24]
 1840 001c 62F30F33 		bfi	r3, r2, #12, #4
 1841 0020 8361     		str	r3, [r0, #24]
 946:./libraries/drivers/src/at32f413_tmr.c ****       break;
 1842              		.loc 1 946 7 is_stmt 1 view .LVU471
 1843 0022 7047     		bx	lr
 1844              	.L131:
 947:./libraries/drivers/src/at32f413_tmr.c **** 
 948:./libraries/drivers/src/at32f413_tmr.c ****     case TMR_SELECT_CHANNEL_3:
 949:./libraries/drivers/src/at32f413_tmr.c ****       tmr_x->cm2_input_bit.c3df = filter_value;
 1845              		.loc 1 949 7 view .LVU472
 1846              		.loc 1 949 33 is_stmt 0 view .LVU473
 1847 0024 C369     		ldr	r3, [r0, #28]
 1848 0026 62F30713 		bfi	r3, r2, #4, #4
 1849 002a C361     		str	r3, [r0, #28]
 950:./libraries/drivers/src/at32f413_tmr.c ****       break;
 1850              		.loc 1 950 7 is_stmt 1 view .LVU474
 1851 002c 7047     		bx	lr
 1852              	.L129:
 951:./libraries/drivers/src/at32f413_tmr.c **** 
 952:./libraries/drivers/src/at32f413_tmr.c ****     case TMR_SELECT_CHANNEL_4:
 953:./libraries/drivers/src/at32f413_tmr.c ****       tmr_x->cm2_input_bit.c4df = filter_value;
 1853              		.loc 1 953 7 view .LVU475
 1854              		.loc 1 953 33 is_stmt 0 view .LVU476
 1855 002e C369     		ldr	r3, [r0, #28]
 1856 0030 62F30F33 		bfi	r3, r2, #12, #4
 1857 0034 C361     		str	r3, [r0, #28]
 954:./libraries/drivers/src/at32f413_tmr.c ****       break;
 1858              		.loc 1 954 7 is_stmt 1 view .LVU477
 1859              	.L127:
 955:./libraries/drivers/src/at32f413_tmr.c **** 
 956:./libraries/drivers/src/at32f413_tmr.c ****     default:
 957:./libraries/drivers/src/at32f413_tmr.c ****       break;
ARM GAS  C:\Users\J\AppData\Local\Temp\ccrWFtxe.s 			page 51


 958:./libraries/drivers/src/at32f413_tmr.c ****   }
 959:./libraries/drivers/src/at32f413_tmr.c **** }
 1860              		.loc 1 959 1 is_stmt 0 view .LVU478
 1861 0036 7047     		bx	lr
 1862              		.cfi_endproc
 1863              	.LFE162:
 1865              		.section	.text.tmr_pwm_input_config,"ax",%progbits
 1866              		.align	1
 1867              		.global	tmr_pwm_input_config
 1868              		.syntax unified
 1869              		.thumb
 1870              		.thumb_func
 1871              		.fpu fpv4-sp-d16
 1873              	tmr_pwm_input_config:
 1874              	.LVL113:
 1875              	.LFB163:
 960:./libraries/drivers/src/at32f413_tmr.c **** 
 961:./libraries/drivers/src/at32f413_tmr.c **** /**
 962:./libraries/drivers/src/at32f413_tmr.c ****   * @brief  config tmr pwm input
 963:./libraries/drivers/src/at32f413_tmr.c ****   * @param  tmr_x: select the tmr peripheral.
 964:./libraries/drivers/src/at32f413_tmr.c ****   *         this parameter can be one of the following values:
 965:./libraries/drivers/src/at32f413_tmr.c ****   *         TMR1, TMR2, TMR3, TMR4, TMR5, TMR8, TMR9, TMR10,
 966:./libraries/drivers/src/at32f413_tmr.c ****   *         TMR11
 967:./libraries/drivers/src/at32f413_tmr.c ****   * @param  input_struct
 968:./libraries/drivers/src/at32f413_tmr.c ****   *         - to the structure of tmr_input_config_type
 969:./libraries/drivers/src/at32f413_tmr.c ****   * @param  divider_factor
 970:./libraries/drivers/src/at32f413_tmr.c ****   *         this parameter can be one of the following values:
 971:./libraries/drivers/src/at32f413_tmr.c ****   *         - TMR_CHANNEL_INPUT_DIV_1
 972:./libraries/drivers/src/at32f413_tmr.c ****   *         - TMR_CHANNEL_INPUT_DIV_2
 973:./libraries/drivers/src/at32f413_tmr.c ****   *         - TMR_CHANNEL_INPUT_DIV_4
 974:./libraries/drivers/src/at32f413_tmr.c ****   *         - TMR_CHANNEL_INPUT_DIV_8
 975:./libraries/drivers/src/at32f413_tmr.c ****   * @retval none
 976:./libraries/drivers/src/at32f413_tmr.c ****   */
 977:./libraries/drivers/src/at32f413_tmr.c **** void tmr_pwm_input_config(tmr_type *tmr_x, tmr_input_config_type *input_struct,
 978:./libraries/drivers/src/at32f413_tmr.c ****                           tmr_channel_input_divider_type divider_factor)
 979:./libraries/drivers/src/at32f413_tmr.c **** {
 1876              		.loc 1 979 1 is_stmt 1 view -0
 1877              		.cfi_startproc
 1878              		@ args = 0, pretend = 0, frame = 0
 1879              		@ frame_needed = 0, uses_anonymous_args = 0
 1880              		@ link register save eliminated.
 980:./libraries/drivers/src/at32f413_tmr.c ****   uint16_t channel = 0;
 1881              		.loc 1 980 3 view .LVU480
 981:./libraries/drivers/src/at32f413_tmr.c **** 
 982:./libraries/drivers/src/at32f413_tmr.c ****   /* get channel selected */
 983:./libraries/drivers/src/at32f413_tmr.c ****   channel = input_struct->input_channel_select;
 1882              		.loc 1 983 3 view .LVU481
 1883              		.loc 1 983 25 is_stmt 0 view .LVU482
 1884 0000 0B78     		ldrb	r3, [r1]	@ zero_extendqisi2
 1885              	.LVL114:
 984:./libraries/drivers/src/at32f413_tmr.c **** 
 985:./libraries/drivers/src/at32f413_tmr.c ****   switch(channel)
 1886              		.loc 1 985 3 is_stmt 1 view .LVU483
 1887 0002 13B1     		cbz	r3, .L135
 1888 0004 022B     		cmp	r3, #2
 1889 0006 52D0     		beq	.L136
 1890 0008 7047     		bx	lr
ARM GAS  C:\Users\J\AppData\Local\Temp\ccrWFtxe.s 			page 52


 1891              	.L135:
 986:./libraries/drivers/src/at32f413_tmr.c ****   {
 987:./libraries/drivers/src/at32f413_tmr.c ****     case TMR_SELECT_CHANNEL_1:
 988:./libraries/drivers/src/at32f413_tmr.c ****       if(input_struct->input_polarity_select == TMR_INPUT_RISING_EDGE)
 1892              		.loc 1 988 7 view .LVU484
 1893              		.loc 1 988 22 is_stmt 0 view .LVU485
 1894 000a 4B78     		ldrb	r3, [r1, #1]	@ zero_extendqisi2
 1895              	.LVL115:
 1896              		.loc 1 988 9 view .LVU486
 1897 000c 53BB     		cbnz	r3, .L138
 989:./libraries/drivers/src/at32f413_tmr.c ****       {
 990:./libraries/drivers/src/at32f413_tmr.c ****         /* set channel polarity */
 991:./libraries/drivers/src/at32f413_tmr.c ****         tmr_x->cctrl_bit.c1p          = TMR_INPUT_RISING_EDGE;
 1898              		.loc 1 991 9 is_stmt 1 view .LVU487
 1899              		.loc 1 991 39 is_stmt 0 view .LVU488
 1900 000e 036A     		ldr	r3, [r0, #32]
 1901 0010 6FF34103 		bfc	r3, #1, #1
 1902 0014 0362     		str	r3, [r0, #32]
 1903              	.LVL116:
 992:./libraries/drivers/src/at32f413_tmr.c ****         tmr_x->cctrl_bit.c2p          = TMR_INPUT_FALLING_EDGE;
 1904              		.loc 1 992 9 is_stmt 1 view .LVU489
 1905              		.loc 1 992 39 is_stmt 0 view .LVU490
 1906 0016 036A     		ldr	r3, [r0, #32]
 1907 0018 43F02003 		orr	r3, r3, #32
 1908 001c 0362     		str	r3, [r0, #32]
 1909              	.L139:
 993:./libraries/drivers/src/at32f413_tmr.c ****       }
 994:./libraries/drivers/src/at32f413_tmr.c ****       else if(input_struct->input_polarity_select == TMR_INPUT_FALLING_EDGE)
 995:./libraries/drivers/src/at32f413_tmr.c ****       {
 996:./libraries/drivers/src/at32f413_tmr.c ****         /* set channel polarity */
 997:./libraries/drivers/src/at32f413_tmr.c ****         tmr_x->cctrl_bit.c1p          = TMR_INPUT_FALLING_EDGE;
 998:./libraries/drivers/src/at32f413_tmr.c ****         tmr_x->cctrl_bit.c2p          = TMR_INPUT_RISING_EDGE;
 999:./libraries/drivers/src/at32f413_tmr.c ****       }
1000:./libraries/drivers/src/at32f413_tmr.c **** 
1001:./libraries/drivers/src/at32f413_tmr.c ****       if(input_struct->input_mapped_select == TMR_CC_CHANNEL_MAPPED_DIRECT)
 1910              		.loc 1 1001 7 is_stmt 1 view .LVU491
 1911              		.loc 1 1001 22 is_stmt 0 view .LVU492
 1912 001e 8B78     		ldrb	r3, [r1, #2]	@ zero_extendqisi2
 1913              		.loc 1 1001 9 view .LVU493
 1914 0020 012B     		cmp	r3, #1
 1915 0022 2AD0     		beq	.L146
1002:./libraries/drivers/src/at32f413_tmr.c ****       {
1003:./libraries/drivers/src/at32f413_tmr.c ****         /* ic1 is mapped on ti1 */
1004:./libraries/drivers/src/at32f413_tmr.c ****         tmr_x->cm1_input_bit.c1c = TMR_CC_CHANNEL_MAPPED_DIRECT;
1005:./libraries/drivers/src/at32f413_tmr.c **** 
1006:./libraries/drivers/src/at32f413_tmr.c ****         /* ic1 is mapped on ti2 */
1007:./libraries/drivers/src/at32f413_tmr.c ****         tmr_x->cm1_input_bit.c2c = TMR_CC_CHANNEL_MAPPED_INDIRECT;
1008:./libraries/drivers/src/at32f413_tmr.c ****       }
1009:./libraries/drivers/src/at32f413_tmr.c ****       else if(input_struct->input_mapped_select == TMR_CC_CHANNEL_MAPPED_INDIRECT)
 1916              		.loc 1 1009 12 is_stmt 1 view .LVU494
 1917              		.loc 1 1009 14 is_stmt 0 view .LVU495
 1918 0024 022B     		cmp	r3, #2
 1919 0026 35D0     		beq	.L147
 1920              	.L141:
1010:./libraries/drivers/src/at32f413_tmr.c ****       {
1011:./libraries/drivers/src/at32f413_tmr.c ****         /* ic1 is mapped on ti1 */
1012:./libraries/drivers/src/at32f413_tmr.c ****         tmr_x->cm1_input_bit.c1c = TMR_CC_CHANNEL_MAPPED_INDIRECT;
ARM GAS  C:\Users\J\AppData\Local\Temp\ccrWFtxe.s 			page 53


1013:./libraries/drivers/src/at32f413_tmr.c **** 
1014:./libraries/drivers/src/at32f413_tmr.c ****         /* ic1 is mapped on ti2 */
1015:./libraries/drivers/src/at32f413_tmr.c ****         tmr_x->cm1_input_bit.c2c = TMR_CC_CHANNEL_MAPPED_DIRECT;
1016:./libraries/drivers/src/at32f413_tmr.c ****       }
1017:./libraries/drivers/src/at32f413_tmr.c **** 
1018:./libraries/drivers/src/at32f413_tmr.c ****       /* set input ch1 and ch2 filter value*/
1019:./libraries/drivers/src/at32f413_tmr.c ****       tmr_x->cm1_input_bit.c1df = input_struct->input_filter_value;
 1921              		.loc 1 1019 7 is_stmt 1 view .LVU496
 1922              		.loc 1 1019 47 is_stmt 0 view .LVU497
 1923 0028 91F803C0 		ldrb	ip, [r1, #3]	@ zero_extendqisi2
 1924              		.loc 1 1019 33 view .LVU498
 1925 002c 8369     		ldr	r3, [r0, #24]
 1926 002e 6CF30713 		bfi	r3, ip, #4, #4
 1927 0032 8361     		str	r3, [r0, #24]
1020:./libraries/drivers/src/at32f413_tmr.c ****       tmr_x->cm1_input_bit.c2df = input_struct->input_filter_value;
 1928              		.loc 1 1020 7 is_stmt 1 view .LVU499
 1929              		.loc 1 1020 47 is_stmt 0 view .LVU500
 1930 0034 C978     		ldrb	r1, [r1, #3]	@ zero_extendqisi2
 1931              	.LVL117:
 1932              		.loc 1 1020 33 view .LVU501
 1933 0036 8369     		ldr	r3, [r0, #24]
 1934 0038 61F30F33 		bfi	r3, r1, #12, #4
 1935 003c 8361     		str	r3, [r0, #24]
1021:./libraries/drivers/src/at32f413_tmr.c **** 
1022:./libraries/drivers/src/at32f413_tmr.c ****       /*set input ch1 and ch2 divider value*/
1023:./libraries/drivers/src/at32f413_tmr.c ****       tmr_x->cm1_input_bit.c1idiv = divider_factor;
 1936              		.loc 1 1023 7 is_stmt 1 view .LVU502
 1937              		.loc 1 1023 35 is_stmt 0 view .LVU503
 1938 003e 02F00302 		and	r2, r2, #3
 1939              	.LVL118:
 1940              		.loc 1 1023 35 view .LVU504
 1941 0042 8369     		ldr	r3, [r0, #24]
 1942 0044 62F38303 		bfi	r3, r2, #2, #2
 1943 0048 8361     		str	r3, [r0, #24]
1024:./libraries/drivers/src/at32f413_tmr.c ****       tmr_x->cm1_input_bit.c2idiv = divider_factor;
 1944              		.loc 1 1024 7 is_stmt 1 view .LVU505
 1945              		.loc 1 1024 35 is_stmt 0 view .LVU506
 1946 004a 8369     		ldr	r3, [r0, #24]
 1947 004c 62F38B23 		bfi	r3, r2, #10, #2
 1948 0050 8361     		str	r3, [r0, #24]
1025:./libraries/drivers/src/at32f413_tmr.c **** 
1026:./libraries/drivers/src/at32f413_tmr.c ****       tmr_x->cctrl_bit.c1en = TRUE;
 1949              		.loc 1 1026 7 is_stmt 1 view .LVU507
 1950              		.loc 1 1026 29 is_stmt 0 view .LVU508
 1951 0052 036A     		ldr	r3, [r0, #32]
 1952 0054 43F00103 		orr	r3, r3, #1
 1953 0058 0362     		str	r3, [r0, #32]
1027:./libraries/drivers/src/at32f413_tmr.c ****       tmr_x->cctrl_bit.c2en = TRUE;
 1954              		.loc 1 1027 7 is_stmt 1 view .LVU509
 1955              		.loc 1 1027 29 is_stmt 0 view .LVU510
 1956 005a 036A     		ldr	r3, [r0, #32]
 1957 005c 43F01003 		orr	r3, r3, #16
 1958 0060 0362     		str	r3, [r0, #32]
1028:./libraries/drivers/src/at32f413_tmr.c ****       break;
 1959              		.loc 1 1028 7 is_stmt 1 view .LVU511
 1960 0062 7047     		bx	lr
 1961              	.LVL119:
ARM GAS  C:\Users\J\AppData\Local\Temp\ccrWFtxe.s 			page 54


 1962              	.L138:
 994:./libraries/drivers/src/at32f413_tmr.c ****       {
 1963              		.loc 1 994 12 view .LVU512
 994:./libraries/drivers/src/at32f413_tmr.c ****       {
 1964              		.loc 1 994 14 is_stmt 0 view .LVU513
 1965 0064 012B     		cmp	r3, #1
 1966 0066 DAD1     		bne	.L139
 997:./libraries/drivers/src/at32f413_tmr.c ****         tmr_x->cctrl_bit.c2p          = TMR_INPUT_RISING_EDGE;
 1967              		.loc 1 997 9 is_stmt 1 view .LVU514
 997:./libraries/drivers/src/at32f413_tmr.c ****         tmr_x->cctrl_bit.c2p          = TMR_INPUT_RISING_EDGE;
 1968              		.loc 1 997 39 is_stmt 0 view .LVU515
 1969 0068 036A     		ldr	r3, [r0, #32]
 1970 006a 43F00203 		orr	r3, r3, #2
 1971 006e 0362     		str	r3, [r0, #32]
 1972              	.LVL120:
 998:./libraries/drivers/src/at32f413_tmr.c ****       }
 1973              		.loc 1 998 9 is_stmt 1 view .LVU516
 998:./libraries/drivers/src/at32f413_tmr.c ****       }
 1974              		.loc 1 998 39 is_stmt 0 view .LVU517
 1975 0070 036A     		ldr	r3, [r0, #32]
 1976 0072 6FF34513 		bfc	r3, #5, #1
 1977 0076 0362     		str	r3, [r0, #32]
 1978 0078 D1E7     		b	.L139
 1979              	.L146:
1004:./libraries/drivers/src/at32f413_tmr.c **** 
 1980              		.loc 1 1004 9 is_stmt 1 view .LVU518
1004:./libraries/drivers/src/at32f413_tmr.c **** 
 1981              		.loc 1 1004 34 is_stmt 0 view .LVU519
 1982 007a 8369     		ldr	r3, [r0, #24]
 1983 007c 4FF0010C 		mov	ip, #1
 1984 0080 6CF30103 		bfi	r3, ip, #0, #2
 1985 0084 8361     		str	r3, [r0, #24]
1007:./libraries/drivers/src/at32f413_tmr.c ****       }
 1986              		.loc 1 1007 9 is_stmt 1 view .LVU520
1007:./libraries/drivers/src/at32f413_tmr.c ****       }
 1987              		.loc 1 1007 34 is_stmt 0 view .LVU521
 1988 0086 8369     		ldr	r3, [r0, #24]
 1989 0088 4FF0020C 		mov	ip, #2
 1990 008c 6CF30923 		bfi	r3, ip, #8, #2
 1991 0090 8361     		str	r3, [r0, #24]
 1992 0092 C9E7     		b	.L141
 1993              	.L147:
1012:./libraries/drivers/src/at32f413_tmr.c **** 
 1994              		.loc 1 1012 9 is_stmt 1 view .LVU522
1012:./libraries/drivers/src/at32f413_tmr.c **** 
 1995              		.loc 1 1012 34 is_stmt 0 view .LVU523
 1996 0094 8369     		ldr	r3, [r0, #24]
 1997 0096 4FF0020C 		mov	ip, #2
 1998 009a 6CF30103 		bfi	r3, ip, #0, #2
 1999 009e 8361     		str	r3, [r0, #24]
1015:./libraries/drivers/src/at32f413_tmr.c ****       }
 2000              		.loc 1 1015 9 is_stmt 1 view .LVU524
1015:./libraries/drivers/src/at32f413_tmr.c ****       }
 2001              		.loc 1 1015 34 is_stmt 0 view .LVU525
 2002 00a0 8369     		ldr	r3, [r0, #24]
 2003 00a2 4FF0010C 		mov	ip, #1
 2004 00a6 6CF30923 		bfi	r3, ip, #8, #2
ARM GAS  C:\Users\J\AppData\Local\Temp\ccrWFtxe.s 			page 55


 2005 00aa 8361     		str	r3, [r0, #24]
 2006 00ac BCE7     		b	.L141
 2007              	.LVL121:
 2008              	.L136:
1029:./libraries/drivers/src/at32f413_tmr.c **** 
1030:./libraries/drivers/src/at32f413_tmr.c ****     case TMR_SELECT_CHANNEL_2:
1031:./libraries/drivers/src/at32f413_tmr.c ****       if(input_struct->input_polarity_select == TMR_INPUT_RISING_EDGE)
 2009              		.loc 1 1031 7 is_stmt 1 view .LVU526
 2010              		.loc 1 1031 22 is_stmt 0 view .LVU527
 2011 00ae 4B78     		ldrb	r3, [r1, #1]	@ zero_extendqisi2
 2012              	.LVL122:
 2013              		.loc 1 1031 9 view .LVU528
 2014 00b0 53BB     		cbnz	r3, .L142
1032:./libraries/drivers/src/at32f413_tmr.c ****       {
1033:./libraries/drivers/src/at32f413_tmr.c ****         /* set channel polarity */
1034:./libraries/drivers/src/at32f413_tmr.c ****         tmr_x->cctrl_bit.c2p          = TMR_INPUT_RISING_EDGE;
 2015              		.loc 1 1034 9 is_stmt 1 view .LVU529
 2016              		.loc 1 1034 39 is_stmt 0 view .LVU530
 2017 00b2 036A     		ldr	r3, [r0, #32]
 2018 00b4 6FF34513 		bfc	r3, #5, #1
 2019 00b8 0362     		str	r3, [r0, #32]
 2020              	.LVL123:
1035:./libraries/drivers/src/at32f413_tmr.c ****         tmr_x->cctrl_bit.c1p          = TMR_INPUT_FALLING_EDGE;
 2021              		.loc 1 1035 9 is_stmt 1 view .LVU531
 2022              		.loc 1 1035 39 is_stmt 0 view .LVU532
 2023 00ba 036A     		ldr	r3, [r0, #32]
 2024 00bc 43F00203 		orr	r3, r3, #2
 2025 00c0 0362     		str	r3, [r0, #32]
 2026              	.L143:
1036:./libraries/drivers/src/at32f413_tmr.c ****       }
1037:./libraries/drivers/src/at32f413_tmr.c ****       else if(input_struct->input_polarity_select == TMR_INPUT_FALLING_EDGE)
1038:./libraries/drivers/src/at32f413_tmr.c ****       {
1039:./libraries/drivers/src/at32f413_tmr.c ****         /* set channel polarity */
1040:./libraries/drivers/src/at32f413_tmr.c ****         tmr_x->cctrl_bit.c2p          = TMR_INPUT_FALLING_EDGE;
1041:./libraries/drivers/src/at32f413_tmr.c ****         tmr_x->cctrl_bit.c1p          = TMR_INPUT_RISING_EDGE;
1042:./libraries/drivers/src/at32f413_tmr.c ****       }
1043:./libraries/drivers/src/at32f413_tmr.c **** 
1044:./libraries/drivers/src/at32f413_tmr.c ****       if(input_struct->input_mapped_select == TMR_CC_CHANNEL_MAPPED_DIRECT)
 2027              		.loc 1 1044 7 is_stmt 1 view .LVU533
 2028              		.loc 1 1044 22 is_stmt 0 view .LVU534
 2029 00c2 8B78     		ldrb	r3, [r1, #2]	@ zero_extendqisi2
 2030              		.loc 1 1044 9 view .LVU535
 2031 00c4 012B     		cmp	r3, #1
 2032 00c6 2AD0     		beq	.L148
1045:./libraries/drivers/src/at32f413_tmr.c ****       {
1046:./libraries/drivers/src/at32f413_tmr.c ****         /* set mapped direct */
1047:./libraries/drivers/src/at32f413_tmr.c ****         tmr_x->cm1_input_bit.c2c = TMR_CC_CHANNEL_MAPPED_DIRECT;
1048:./libraries/drivers/src/at32f413_tmr.c ****         tmr_x->cm1_input_bit.c1c = TMR_CC_CHANNEL_MAPPED_INDIRECT;
1049:./libraries/drivers/src/at32f413_tmr.c ****       }
1050:./libraries/drivers/src/at32f413_tmr.c ****       else if(input_struct->input_mapped_select == TMR_CC_CHANNEL_MAPPED_INDIRECT)
 2033              		.loc 1 1050 12 is_stmt 1 view .LVU536
 2034              		.loc 1 1050 14 is_stmt 0 view .LVU537
 2035 00c8 022B     		cmp	r3, #2
 2036 00ca 35D0     		beq	.L149
 2037              	.L145:
1051:./libraries/drivers/src/at32f413_tmr.c ****       {
1052:./libraries/drivers/src/at32f413_tmr.c ****         /* set mapped direct */
ARM GAS  C:\Users\J\AppData\Local\Temp\ccrWFtxe.s 			page 56


1053:./libraries/drivers/src/at32f413_tmr.c ****         tmr_x->cm1_input_bit.c2c = TMR_CC_CHANNEL_MAPPED_INDIRECT;
1054:./libraries/drivers/src/at32f413_tmr.c ****         tmr_x->cm1_input_bit.c1c = TMR_CC_CHANNEL_MAPPED_DIRECT;
1055:./libraries/drivers/src/at32f413_tmr.c ****       }
1056:./libraries/drivers/src/at32f413_tmr.c **** 
1057:./libraries/drivers/src/at32f413_tmr.c ****       /* set input ch1 and ch2 filter value*/
1058:./libraries/drivers/src/at32f413_tmr.c ****       tmr_x->cm1_input_bit.c1df = input_struct->input_filter_value;
 2038              		.loc 1 1058 7 is_stmt 1 view .LVU538
 2039              		.loc 1 1058 47 is_stmt 0 view .LVU539
 2040 00cc 91F803C0 		ldrb	ip, [r1, #3]	@ zero_extendqisi2
 2041              		.loc 1 1058 33 view .LVU540
 2042 00d0 8369     		ldr	r3, [r0, #24]
 2043 00d2 6CF30713 		bfi	r3, ip, #4, #4
 2044 00d6 8361     		str	r3, [r0, #24]
1059:./libraries/drivers/src/at32f413_tmr.c ****       tmr_x->cm1_input_bit.c2df = input_struct->input_filter_value;
 2045              		.loc 1 1059 7 is_stmt 1 view .LVU541
 2046              		.loc 1 1059 47 is_stmt 0 view .LVU542
 2047 00d8 C978     		ldrb	r1, [r1, #3]	@ zero_extendqisi2
 2048              	.LVL124:
 2049              		.loc 1 1059 33 view .LVU543
 2050 00da 8369     		ldr	r3, [r0, #24]
 2051 00dc 61F30F33 		bfi	r3, r1, #12, #4
 2052 00e0 8361     		str	r3, [r0, #24]
1060:./libraries/drivers/src/at32f413_tmr.c **** 
1061:./libraries/drivers/src/at32f413_tmr.c ****       /*set input ch1 and ch2 divider value*/
1062:./libraries/drivers/src/at32f413_tmr.c ****       tmr_x->cm1_input_bit.c1idiv = divider_factor;
 2053              		.loc 1 1062 7 is_stmt 1 view .LVU544
 2054              		.loc 1 1062 35 is_stmt 0 view .LVU545
 2055 00e2 02F00302 		and	r2, r2, #3
 2056              	.LVL125:
 2057              		.loc 1 1062 35 view .LVU546
 2058 00e6 8369     		ldr	r3, [r0, #24]
 2059 00e8 62F38303 		bfi	r3, r2, #2, #2
 2060 00ec 8361     		str	r3, [r0, #24]
1063:./libraries/drivers/src/at32f413_tmr.c ****       tmr_x->cm1_input_bit.c2idiv = divider_factor;
 2061              		.loc 1 1063 7 is_stmt 1 view .LVU547
 2062              		.loc 1 1063 35 is_stmt 0 view .LVU548
 2063 00ee 8369     		ldr	r3, [r0, #24]
 2064 00f0 62F38B23 		bfi	r3, r2, #10, #2
 2065 00f4 8361     		str	r3, [r0, #24]
1064:./libraries/drivers/src/at32f413_tmr.c **** 
1065:./libraries/drivers/src/at32f413_tmr.c ****       tmr_x->cctrl_bit.c1en = TRUE;
 2066              		.loc 1 1065 7 is_stmt 1 view .LVU549
 2067              		.loc 1 1065 29 is_stmt 0 view .LVU550
 2068 00f6 036A     		ldr	r3, [r0, #32]
 2069 00f8 43F00103 		orr	r3, r3, #1
 2070 00fc 0362     		str	r3, [r0, #32]
1066:./libraries/drivers/src/at32f413_tmr.c ****       tmr_x->cctrl_bit.c2en = TRUE;
 2071              		.loc 1 1066 7 is_stmt 1 view .LVU551
 2072              		.loc 1 1066 29 is_stmt 0 view .LVU552
 2073 00fe 036A     		ldr	r3, [r0, #32]
 2074 0100 43F01003 		orr	r3, r3, #16
 2075 0104 0362     		str	r3, [r0, #32]
1067:./libraries/drivers/src/at32f413_tmr.c ****       break;
 2076              		.loc 1 1067 7 is_stmt 1 view .LVU553
1068:./libraries/drivers/src/at32f413_tmr.c **** 
1069:./libraries/drivers/src/at32f413_tmr.c ****     default:
1070:./libraries/drivers/src/at32f413_tmr.c ****       break;
ARM GAS  C:\Users\J\AppData\Local\Temp\ccrWFtxe.s 			page 57


1071:./libraries/drivers/src/at32f413_tmr.c ****   }
1072:./libraries/drivers/src/at32f413_tmr.c **** }
 2077              		.loc 1 1072 1 is_stmt 0 view .LVU554
 2078 0106 7047     		bx	lr
 2079              	.LVL126:
 2080              	.L142:
1037:./libraries/drivers/src/at32f413_tmr.c ****       {
 2081              		.loc 1 1037 12 is_stmt 1 view .LVU555
1037:./libraries/drivers/src/at32f413_tmr.c ****       {
 2082              		.loc 1 1037 14 is_stmt 0 view .LVU556
 2083 0108 012B     		cmp	r3, #1
 2084 010a DAD1     		bne	.L143
1040:./libraries/drivers/src/at32f413_tmr.c ****         tmr_x->cctrl_bit.c1p          = TMR_INPUT_RISING_EDGE;
 2085              		.loc 1 1040 9 is_stmt 1 view .LVU557
1040:./libraries/drivers/src/at32f413_tmr.c ****         tmr_x->cctrl_bit.c1p          = TMR_INPUT_RISING_EDGE;
 2086              		.loc 1 1040 39 is_stmt 0 view .LVU558
 2087 010c 036A     		ldr	r3, [r0, #32]
 2088 010e 43F02003 		orr	r3, r3, #32
 2089 0112 0362     		str	r3, [r0, #32]
 2090              	.LVL127:
1041:./libraries/drivers/src/at32f413_tmr.c ****       }
 2091              		.loc 1 1041 9 is_stmt 1 view .LVU559
1041:./libraries/drivers/src/at32f413_tmr.c ****       }
 2092              		.loc 1 1041 39 is_stmt 0 view .LVU560
 2093 0114 036A     		ldr	r3, [r0, #32]
 2094 0116 6FF34103 		bfc	r3, #1, #1
 2095 011a 0362     		str	r3, [r0, #32]
 2096 011c D1E7     		b	.L143
 2097              	.L148:
1047:./libraries/drivers/src/at32f413_tmr.c ****         tmr_x->cm1_input_bit.c1c = TMR_CC_CHANNEL_MAPPED_INDIRECT;
 2098              		.loc 1 1047 9 is_stmt 1 view .LVU561
1047:./libraries/drivers/src/at32f413_tmr.c ****         tmr_x->cm1_input_bit.c1c = TMR_CC_CHANNEL_MAPPED_INDIRECT;
 2099              		.loc 1 1047 34 is_stmt 0 view .LVU562
 2100 011e 8369     		ldr	r3, [r0, #24]
 2101 0120 4FF0010C 		mov	ip, #1
 2102 0124 6CF30923 		bfi	r3, ip, #8, #2
 2103 0128 8361     		str	r3, [r0, #24]
1048:./libraries/drivers/src/at32f413_tmr.c ****       }
 2104              		.loc 1 1048 9 is_stmt 1 view .LVU563
1048:./libraries/drivers/src/at32f413_tmr.c ****       }
 2105              		.loc 1 1048 34 is_stmt 0 view .LVU564
 2106 012a 8369     		ldr	r3, [r0, #24]
 2107 012c 4FF0020C 		mov	ip, #2
 2108 0130 6CF30103 		bfi	r3, ip, #0, #2
 2109 0134 8361     		str	r3, [r0, #24]
 2110 0136 C9E7     		b	.L145
 2111              	.L149:
1053:./libraries/drivers/src/at32f413_tmr.c ****         tmr_x->cm1_input_bit.c1c = TMR_CC_CHANNEL_MAPPED_DIRECT;
 2112              		.loc 1 1053 9 is_stmt 1 view .LVU565
1053:./libraries/drivers/src/at32f413_tmr.c ****         tmr_x->cm1_input_bit.c1c = TMR_CC_CHANNEL_MAPPED_DIRECT;
 2113              		.loc 1 1053 34 is_stmt 0 view .LVU566
 2114 0138 8369     		ldr	r3, [r0, #24]
 2115 013a 4FF0020C 		mov	ip, #2
 2116 013e 6CF30923 		bfi	r3, ip, #8, #2
 2117 0142 8361     		str	r3, [r0, #24]
1054:./libraries/drivers/src/at32f413_tmr.c ****       }
 2118              		.loc 1 1054 9 is_stmt 1 view .LVU567
ARM GAS  C:\Users\J\AppData\Local\Temp\ccrWFtxe.s 			page 58


1054:./libraries/drivers/src/at32f413_tmr.c ****       }
 2119              		.loc 1 1054 34 is_stmt 0 view .LVU568
 2120 0144 8369     		ldr	r3, [r0, #24]
 2121 0146 4FF0010C 		mov	ip, #1
 2122 014a 6CF30103 		bfi	r3, ip, #0, #2
 2123 014e 8361     		str	r3, [r0, #24]
 2124 0150 BCE7     		b	.L145
 2125              		.cfi_endproc
 2126              	.LFE163:
 2128              		.section	.text.tmr_channel1_input_select,"ax",%progbits
 2129              		.align	1
 2130              		.global	tmr_channel1_input_select
 2131              		.syntax unified
 2132              		.thumb
 2133              		.thumb_func
 2134              		.fpu fpv4-sp-d16
 2136              	tmr_channel1_input_select:
 2137              	.LVL128:
 2138              	.LFB164:
1073:./libraries/drivers/src/at32f413_tmr.c **** 
1074:./libraries/drivers/src/at32f413_tmr.c **** /**
1075:./libraries/drivers/src/at32f413_tmr.c ****   * @brief  select tmr channel1 input
1076:./libraries/drivers/src/at32f413_tmr.c ****   * @param  tmr_x: select the tmr peripheral.
1077:./libraries/drivers/src/at32f413_tmr.c ****   *         this parameter can be one of the following values:
1078:./libraries/drivers/src/at32f413_tmr.c ****   *         TMR1, TMR2, TMR3, TMR4, TMR5, TMR8
1079:./libraries/drivers/src/at32f413_tmr.c ****   * @param  ti1_connect
1080:./libraries/drivers/src/at32f413_tmr.c ****   *         this parameter can be one of the following values:
1081:./libraries/drivers/src/at32f413_tmr.c ****   *         - TMR_CHANEL1_CONNECTED_C1IRAW
1082:./libraries/drivers/src/at32f413_tmr.c ****   *         - TMR_CHANEL1_2_3_CONNECTED_C1IRAW_XOR
1083:./libraries/drivers/src/at32f413_tmr.c ****   * @retval none
1084:./libraries/drivers/src/at32f413_tmr.c ****   */
1085:./libraries/drivers/src/at32f413_tmr.c **** void tmr_channel1_input_select(tmr_type *tmr_x, tmr_channel1_input_connected_type ti1_connect)
1086:./libraries/drivers/src/at32f413_tmr.c **** {
 2139              		.loc 1 1086 1 is_stmt 1 view -0
 2140              		.cfi_startproc
 2141              		@ args = 0, pretend = 0, frame = 0
 2142              		@ frame_needed = 0, uses_anonymous_args = 0
 2143              		@ link register save eliminated.
1087:./libraries/drivers/src/at32f413_tmr.c ****   tmr_x->ctrl2_bit.c1insel = ti1_connect;
 2144              		.loc 1 1087 3 view .LVU570
 2145              		.loc 1 1087 28 is_stmt 0 view .LVU571
 2146 0000 4368     		ldr	r3, [r0, #4]
 2147 0002 61F3C713 		bfi	r3, r1, #7, #1
 2148 0006 4360     		str	r3, [r0, #4]
1088:./libraries/drivers/src/at32f413_tmr.c **** }
 2149              		.loc 1 1088 1 view .LVU572
 2150 0008 7047     		bx	lr
 2151              		.cfi_endproc
 2152              	.LFE164:
 2154              		.section	.text.tmr_input_channel_divider_set,"ax",%progbits
 2155              		.align	1
 2156              		.global	tmr_input_channel_divider_set
 2157              		.syntax unified
 2158              		.thumb
 2159              		.thumb_func
 2160              		.fpu fpv4-sp-d16
 2162              	tmr_input_channel_divider_set:
ARM GAS  C:\Users\J\AppData\Local\Temp\ccrWFtxe.s 			page 59


 2163              	.LVL129:
 2164              	.LFB165:
1089:./libraries/drivers/src/at32f413_tmr.c **** 
1090:./libraries/drivers/src/at32f413_tmr.c **** /**
1091:./libraries/drivers/src/at32f413_tmr.c ****   * @brief  set tmr input channel divider
1092:./libraries/drivers/src/at32f413_tmr.c ****   * @param  tmr_x: select the tmr peripheral.
1093:./libraries/drivers/src/at32f413_tmr.c ****   *         this parameter can be one of the following values:
1094:./libraries/drivers/src/at32f413_tmr.c ****   *         TMR1, TMR2, TMR3, TMR4, TMR5, TMR8, TMR9, TMR10,
1095:./libraries/drivers/src/at32f413_tmr.c ****   *         TMR11
1096:./libraries/drivers/src/at32f413_tmr.c ****   * @param  tmr_channel
1097:./libraries/drivers/src/at32f413_tmr.c ****   *         this parameter can be one of the following values:
1098:./libraries/drivers/src/at32f413_tmr.c ****   *         - TMR_SELECT_CHANNEL_1
1099:./libraries/drivers/src/at32f413_tmr.c ****   *         - TMR_SELECT_CHANNEL_2
1100:./libraries/drivers/src/at32f413_tmr.c ****   *         - TMR_SELECT_CHANNEL_3
1101:./libraries/drivers/src/at32f413_tmr.c ****   *         - TMR_SELECT_CHANNEL_4
1102:./libraries/drivers/src/at32f413_tmr.c ****   * @param  divider_factor
1103:./libraries/drivers/src/at32f413_tmr.c ****   *         this parameter can be one of the following values:
1104:./libraries/drivers/src/at32f413_tmr.c ****   *         - TMR_CHANNEL_INPUT_DIV_1
1105:./libraries/drivers/src/at32f413_tmr.c ****   *         - TMR_CHANNEL_INPUT_DIV_2
1106:./libraries/drivers/src/at32f413_tmr.c ****   *         - TMR_CHANNEL_INPUT_DIV_4
1107:./libraries/drivers/src/at32f413_tmr.c ****   *         - TMR_CHANNEL_INPUT_DIV_8
1108:./libraries/drivers/src/at32f413_tmr.c ****   * @retval none
1109:./libraries/drivers/src/at32f413_tmr.c ****   */
1110:./libraries/drivers/src/at32f413_tmr.c **** void tmr_input_channel_divider_set(tmr_type *tmr_x, tmr_channel_select_type tmr_channel,
1111:./libraries/drivers/src/at32f413_tmr.c ****                                    tmr_channel_input_divider_type divider_factor)
1112:./libraries/drivers/src/at32f413_tmr.c **** {
 2165              		.loc 1 1112 1 is_stmt 1 view -0
 2166              		.cfi_startproc
 2167              		@ args = 0, pretend = 0, frame = 0
 2168              		@ frame_needed = 0, uses_anonymous_args = 0
 2169              		@ link register save eliminated.
1113:./libraries/drivers/src/at32f413_tmr.c ****   uint16_t channel;
 2170              		.loc 1 1113 3 view .LVU574
1114:./libraries/drivers/src/at32f413_tmr.c **** 
1115:./libraries/drivers/src/at32f413_tmr.c ****   channel = tmr_channel;
 2171              		.loc 1 1115 3 view .LVU575
1116:./libraries/drivers/src/at32f413_tmr.c **** 
1117:./libraries/drivers/src/at32f413_tmr.c ****   switch(channel)
 2172              		.loc 1 1117 3 view .LVU576
 2173 0000 0629     		cmp	r1, #6
 2174 0002 18D8     		bhi	.L151
 2175 0004 DFE801F0 		tbb	[pc, r1]
 2176              	.L154:
 2177 0008 04       		.byte	(.L157-.L154)/2
 2178 0009 17       		.byte	(.L151-.L154)/2
 2179 000a 09       		.byte	(.L156-.L154)/2
 2180 000b 17       		.byte	(.L151-.L154)/2
 2181 000c 0E       		.byte	(.L155-.L154)/2
 2182 000d 17       		.byte	(.L151-.L154)/2
 2183 000e 13       		.byte	(.L153-.L154)/2
 2184 000f 00       		.p2align 1
 2185              	.L157:
1118:./libraries/drivers/src/at32f413_tmr.c ****   {
1119:./libraries/drivers/src/at32f413_tmr.c ****     case TMR_SELECT_CHANNEL_1:
1120:./libraries/drivers/src/at32f413_tmr.c ****       tmr_x->cm1_input_bit.c1idiv = divider_factor;
 2186              		.loc 1 1120 7 view .LVU577
 2187              		.loc 1 1120 35 is_stmt 0 view .LVU578
ARM GAS  C:\Users\J\AppData\Local\Temp\ccrWFtxe.s 			page 60


 2188 0010 8369     		ldr	r3, [r0, #24]
 2189 0012 62F38303 		bfi	r3, r2, #2, #2
 2190 0016 8361     		str	r3, [r0, #24]
1121:./libraries/drivers/src/at32f413_tmr.c ****       break;
 2191              		.loc 1 1121 7 is_stmt 1 view .LVU579
 2192 0018 7047     		bx	lr
 2193              	.L156:
1122:./libraries/drivers/src/at32f413_tmr.c **** 
1123:./libraries/drivers/src/at32f413_tmr.c ****     case TMR_SELECT_CHANNEL_2:
1124:./libraries/drivers/src/at32f413_tmr.c ****       tmr_x->cm1_input_bit.c2idiv = divider_factor;
 2194              		.loc 1 1124 7 view .LVU580
 2195              		.loc 1 1124 35 is_stmt 0 view .LVU581
 2196 001a 8369     		ldr	r3, [r0, #24]
 2197 001c 62F38B23 		bfi	r3, r2, #10, #2
 2198 0020 8361     		str	r3, [r0, #24]
1125:./libraries/drivers/src/at32f413_tmr.c ****       break;
 2199              		.loc 1 1125 7 is_stmt 1 view .LVU582
 2200 0022 7047     		bx	lr
 2201              	.L155:
1126:./libraries/drivers/src/at32f413_tmr.c **** 
1127:./libraries/drivers/src/at32f413_tmr.c ****     case TMR_SELECT_CHANNEL_3:
1128:./libraries/drivers/src/at32f413_tmr.c ****       tmr_x->cm2_input_bit.c3idiv = divider_factor;
 2202              		.loc 1 1128 7 view .LVU583
 2203              		.loc 1 1128 35 is_stmt 0 view .LVU584
 2204 0024 C369     		ldr	r3, [r0, #28]
 2205 0026 62F38303 		bfi	r3, r2, #2, #2
 2206 002a C361     		str	r3, [r0, #28]
1129:./libraries/drivers/src/at32f413_tmr.c ****       break;
 2207              		.loc 1 1129 7 is_stmt 1 view .LVU585
 2208 002c 7047     		bx	lr
 2209              	.L153:
1130:./libraries/drivers/src/at32f413_tmr.c **** 
1131:./libraries/drivers/src/at32f413_tmr.c ****     case TMR_SELECT_CHANNEL_4:
1132:./libraries/drivers/src/at32f413_tmr.c ****       tmr_x->cm2_input_bit.c4idiv = divider_factor;
 2210              		.loc 1 1132 7 view .LVU586
 2211              		.loc 1 1132 35 is_stmt 0 view .LVU587
 2212 002e C369     		ldr	r3, [r0, #28]
 2213 0030 62F38B23 		bfi	r3, r2, #10, #2
 2214 0034 C361     		str	r3, [r0, #28]
1133:./libraries/drivers/src/at32f413_tmr.c ****       break;
 2215              		.loc 1 1133 7 is_stmt 1 view .LVU588
 2216              	.L151:
1134:./libraries/drivers/src/at32f413_tmr.c **** 
1135:./libraries/drivers/src/at32f413_tmr.c ****     default:
1136:./libraries/drivers/src/at32f413_tmr.c ****       break;
1137:./libraries/drivers/src/at32f413_tmr.c ****   }
1138:./libraries/drivers/src/at32f413_tmr.c **** }
 2217              		.loc 1 1138 1 is_stmt 0 view .LVU589
 2218 0036 7047     		bx	lr
 2219              		.cfi_endproc
 2220              	.LFE165:
 2222              		.section	.text.tmr_primary_mode_select,"ax",%progbits
 2223              		.align	1
 2224              		.global	tmr_primary_mode_select
 2225              		.syntax unified
 2226              		.thumb
 2227              		.thumb_func
ARM GAS  C:\Users\J\AppData\Local\Temp\ccrWFtxe.s 			page 61


 2228              		.fpu fpv4-sp-d16
 2230              	tmr_primary_mode_select:
 2231              	.LVL130:
 2232              	.LFB166:
1139:./libraries/drivers/src/at32f413_tmr.c **** 
1140:./libraries/drivers/src/at32f413_tmr.c **** /**
1141:./libraries/drivers/src/at32f413_tmr.c ****   * @brief  select tmr primary mode
1142:./libraries/drivers/src/at32f413_tmr.c ****   * @param  tmr_x: select the tmr peripheral.
1143:./libraries/drivers/src/at32f413_tmr.c ****   *         this parameter can be one of the following values:
1144:./libraries/drivers/src/at32f413_tmr.c ****   *         TMR1, TMR2, TMR3, TMR4, TMR5, TMR8
1145:./libraries/drivers/src/at32f413_tmr.c ****   * @param  primary_mode
1146:./libraries/drivers/src/at32f413_tmr.c ****   *         this parameter can be one of the following values:
1147:./libraries/drivers/src/at32f413_tmr.c ****   *         - TMR_PRIMARY_SEL_RESET
1148:./libraries/drivers/src/at32f413_tmr.c ****   *         - TMR_PRIMARY_SEL_ENABLE
1149:./libraries/drivers/src/at32f413_tmr.c ****   *         - TMR_PRIMARY_SEL_OVERFLOW
1150:./libraries/drivers/src/at32f413_tmr.c ****   *         - TMR_PRIMARY_SEL_COMPARE
1151:./libraries/drivers/src/at32f413_tmr.c ****   *         - TMR_PRIMARY_SEL_C1ORAW
1152:./libraries/drivers/src/at32f413_tmr.c ****   *         - TMR_PRIMARY_SEL_C2ORAW
1153:./libraries/drivers/src/at32f413_tmr.c ****   *         - TMR_PRIMARY_SEL_C3ORAW
1154:./libraries/drivers/src/at32f413_tmr.c ****   *         - TMR_PRIMARY_SEL_C4ORAW
1155:./libraries/drivers/src/at32f413_tmr.c ****   * @retval none
1156:./libraries/drivers/src/at32f413_tmr.c ****   */
1157:./libraries/drivers/src/at32f413_tmr.c **** void tmr_primary_mode_select(tmr_type *tmr_x, tmr_primary_select_type primary_mode)
1158:./libraries/drivers/src/at32f413_tmr.c **** {
 2233              		.loc 1 1158 1 is_stmt 1 view -0
 2234              		.cfi_startproc
 2235              		@ args = 0, pretend = 0, frame = 0
 2236              		@ frame_needed = 0, uses_anonymous_args = 0
 2237              		@ link register save eliminated.
1159:./libraries/drivers/src/at32f413_tmr.c ****   tmr_x->ctrl2_bit.ptos = primary_mode;
 2238              		.loc 1 1159 3 view .LVU591
 2239              		.loc 1 1159 25 is_stmt 0 view .LVU592
 2240 0000 4368     		ldr	r3, [r0, #4]
 2241 0002 61F30613 		bfi	r3, r1, #4, #3
 2242 0006 4360     		str	r3, [r0, #4]
1160:./libraries/drivers/src/at32f413_tmr.c **** }
 2243              		.loc 1 1160 1 view .LVU593
 2244 0008 7047     		bx	lr
 2245              		.cfi_endproc
 2246              	.LFE166:
 2248              		.section	.text.tmr_sub_mode_select,"ax",%progbits
 2249              		.align	1
 2250              		.global	tmr_sub_mode_select
 2251              		.syntax unified
 2252              		.thumb
 2253              		.thumb_func
 2254              		.fpu fpv4-sp-d16
 2256              	tmr_sub_mode_select:
 2257              	.LVL131:
 2258              	.LFB167:
1161:./libraries/drivers/src/at32f413_tmr.c **** 
1162:./libraries/drivers/src/at32f413_tmr.c **** /**
1163:./libraries/drivers/src/at32f413_tmr.c ****   * @brief  select tmr subordinate mode
1164:./libraries/drivers/src/at32f413_tmr.c ****   * @param  tmr_x: select the tmr peripheral.
1165:./libraries/drivers/src/at32f413_tmr.c ****   *         this parameter can be one of the following values:
1166:./libraries/drivers/src/at32f413_tmr.c ****   *         TMR1, TMR2, TMR3, TMR4, TMR5, TMR8, TMR9
1167:./libraries/drivers/src/at32f413_tmr.c ****   * @param  sub_mode
ARM GAS  C:\Users\J\AppData\Local\Temp\ccrWFtxe.s 			page 62


1168:./libraries/drivers/src/at32f413_tmr.c ****   *         this parameter can be one of the following values:
1169:./libraries/drivers/src/at32f413_tmr.c ****   *         - TMR_SUB_MODE_DIABLE
1170:./libraries/drivers/src/at32f413_tmr.c ****   *         - TMR_SUB_ENCODER_MODE_A
1171:./libraries/drivers/src/at32f413_tmr.c ****   *         - TMR_SUB_ENCODER_MODE_B
1172:./libraries/drivers/src/at32f413_tmr.c ****   *         - TMR_SUB_ENCODER_MODE_C
1173:./libraries/drivers/src/at32f413_tmr.c ****   *         - TMR_SUB_RESET_MODE
1174:./libraries/drivers/src/at32f413_tmr.c ****   *         - TMR_SUB_HANG_MODE
1175:./libraries/drivers/src/at32f413_tmr.c ****   *         - TMR_SUB_TRIGGER_MODE
1176:./libraries/drivers/src/at32f413_tmr.c ****   *         - TMR_SUB_EXTERNAL_CLOCK_MODE_A
1177:./libraries/drivers/src/at32f413_tmr.c ****   * @retval none
1178:./libraries/drivers/src/at32f413_tmr.c ****   */
1179:./libraries/drivers/src/at32f413_tmr.c **** void tmr_sub_mode_select(tmr_type *tmr_x, tmr_sub_mode_select_type sub_mode)
1180:./libraries/drivers/src/at32f413_tmr.c **** {
 2259              		.loc 1 1180 1 is_stmt 1 view -0
 2260              		.cfi_startproc
 2261              		@ args = 0, pretend = 0, frame = 0
 2262              		@ frame_needed = 0, uses_anonymous_args = 0
 2263              		@ link register save eliminated.
1181:./libraries/drivers/src/at32f413_tmr.c ****   tmr_x->stctrl_bit.smsel = sub_mode;
 2264              		.loc 1 1181 3 view .LVU595
 2265              		.loc 1 1181 27 is_stmt 0 view .LVU596
 2266 0000 8368     		ldr	r3, [r0, #8]
 2267 0002 61F30203 		bfi	r3, r1, #0, #3
 2268 0006 8360     		str	r3, [r0, #8]
1182:./libraries/drivers/src/at32f413_tmr.c **** }
 2269              		.loc 1 1182 1 view .LVU597
 2270 0008 7047     		bx	lr
 2271              		.cfi_endproc
 2272              	.LFE167:
 2274              		.section	.text.tmr_channel_dma_select,"ax",%progbits
 2275              		.align	1
 2276              		.global	tmr_channel_dma_select
 2277              		.syntax unified
 2278              		.thumb
 2279              		.thumb_func
 2280              		.fpu fpv4-sp-d16
 2282              	tmr_channel_dma_select:
 2283              	.LVL132:
 2284              	.LFB168:
1183:./libraries/drivers/src/at32f413_tmr.c **** 
1184:./libraries/drivers/src/at32f413_tmr.c **** /**
1185:./libraries/drivers/src/at32f413_tmr.c ****   * @brief  select tmr channel dma
1186:./libraries/drivers/src/at32f413_tmr.c ****   * @param  tmr_x: select the tmr peripheral.
1187:./libraries/drivers/src/at32f413_tmr.c ****   *         this parameter can be one of the following values:
1188:./libraries/drivers/src/at32f413_tmr.c ****   *         TMR1, TMR2, TMR3, TMR4, TMR5, TMR8, TMR9
1189:./libraries/drivers/src/at32f413_tmr.c ****   * @param  cc_dma_select
1190:./libraries/drivers/src/at32f413_tmr.c ****   *         this parameter can be one of the following values:
1191:./libraries/drivers/src/at32f413_tmr.c ****   *         - TMR_DMA_REQUEST_BY_CHANNEL
1192:./libraries/drivers/src/at32f413_tmr.c ****   *         - TMR_DMA_REQUEST_BY_OVERFLOW
1193:./libraries/drivers/src/at32f413_tmr.c ****   * @retval none
1194:./libraries/drivers/src/at32f413_tmr.c ****   */
1195:./libraries/drivers/src/at32f413_tmr.c **** void tmr_channel_dma_select(tmr_type *tmr_x, tmr_dma_request_source_type cc_dma_select)
1196:./libraries/drivers/src/at32f413_tmr.c **** {
 2285              		.loc 1 1196 1 is_stmt 1 view -0
 2286              		.cfi_startproc
 2287              		@ args = 0, pretend = 0, frame = 0
 2288              		@ frame_needed = 0, uses_anonymous_args = 0
ARM GAS  C:\Users\J\AppData\Local\Temp\ccrWFtxe.s 			page 63


 2289              		@ link register save eliminated.
1197:./libraries/drivers/src/at32f413_tmr.c ****   tmr_x->ctrl2_bit.drs = cc_dma_select;
 2290              		.loc 1 1197 3 view .LVU599
 2291              		.loc 1 1197 24 is_stmt 0 view .LVU600
 2292 0000 4368     		ldr	r3, [r0, #4]
 2293 0002 61F3C303 		bfi	r3, r1, #3, #1
 2294 0006 4360     		str	r3, [r0, #4]
1198:./libraries/drivers/src/at32f413_tmr.c **** }
 2295              		.loc 1 1198 1 view .LVU601
 2296 0008 7047     		bx	lr
 2297              		.cfi_endproc
 2298              	.LFE168:
 2300              		.section	.text.tmr_hall_select,"ax",%progbits
 2301              		.align	1
 2302              		.global	tmr_hall_select
 2303              		.syntax unified
 2304              		.thumb
 2305              		.thumb_func
 2306              		.fpu fpv4-sp-d16
 2308              	tmr_hall_select:
 2309              	.LVL133:
 2310              	.LFB169:
1199:./libraries/drivers/src/at32f413_tmr.c **** 
1200:./libraries/drivers/src/at32f413_tmr.c **** /**
1201:./libraries/drivers/src/at32f413_tmr.c ****   * @brief  select tmr hall
1202:./libraries/drivers/src/at32f413_tmr.c ****   * @param  tmr_x: select the tmr peripheral.
1203:./libraries/drivers/src/at32f413_tmr.c ****   *         this parameter can be one of the following values:
1204:./libraries/drivers/src/at32f413_tmr.c ****   *         TMR1, TMR8
1205:./libraries/drivers/src/at32f413_tmr.c ****   * @param  new_state (TRUE or FALSE)
1206:./libraries/drivers/src/at32f413_tmr.c ****   * @retval none
1207:./libraries/drivers/src/at32f413_tmr.c ****   */
1208:./libraries/drivers/src/at32f413_tmr.c **** void tmr_hall_select(tmr_type *tmr_x,  confirm_state new_state)
1209:./libraries/drivers/src/at32f413_tmr.c **** {
 2311              		.loc 1 1209 1 is_stmt 1 view -0
 2312              		.cfi_startproc
 2313              		@ args = 0, pretend = 0, frame = 0
 2314              		@ frame_needed = 0, uses_anonymous_args = 0
 2315              		@ link register save eliminated.
1210:./libraries/drivers/src/at32f413_tmr.c ****   tmr_x->ctrl2_bit.ccfs = new_state;
 2316              		.loc 1 1210 3 view .LVU603
 2317              		.loc 1 1210 25 is_stmt 0 view .LVU604
 2318 0000 4368     		ldr	r3, [r0, #4]
 2319 0002 61F38203 		bfi	r3, r1, #2, #1
 2320 0006 4360     		str	r3, [r0, #4]
1211:./libraries/drivers/src/at32f413_tmr.c **** }
 2321              		.loc 1 1211 1 view .LVU605
 2322 0008 7047     		bx	lr
 2323              		.cfi_endproc
 2324              	.LFE169:
 2326              		.section	.text.tmr_channel_buffer_enable,"ax",%progbits
 2327              		.align	1
 2328              		.global	tmr_channel_buffer_enable
 2329              		.syntax unified
 2330              		.thumb
 2331              		.thumb_func
 2332              		.fpu fpv4-sp-d16
 2334              	tmr_channel_buffer_enable:
ARM GAS  C:\Users\J\AppData\Local\Temp\ccrWFtxe.s 			page 64


 2335              	.LVL134:
 2336              	.LFB170:
1212:./libraries/drivers/src/at32f413_tmr.c **** 
1213:./libraries/drivers/src/at32f413_tmr.c **** /**
1214:./libraries/drivers/src/at32f413_tmr.c ****   * @brief  enable tmr channel buffer
1215:./libraries/drivers/src/at32f413_tmr.c ****   * @param  tmr_x: select the tmr peripheral.
1216:./libraries/drivers/src/at32f413_tmr.c ****   *         this parameter can be one of the following values:
1217:./libraries/drivers/src/at32f413_tmr.c ****   *         TMR1, TMR8
1218:./libraries/drivers/src/at32f413_tmr.c ****   * @param  new_state (TRUE or FALSE)
1219:./libraries/drivers/src/at32f413_tmr.c ****   * @retval none
1220:./libraries/drivers/src/at32f413_tmr.c ****   */
1221:./libraries/drivers/src/at32f413_tmr.c **** void tmr_channel_buffer_enable(tmr_type *tmr_x, confirm_state new_state)
1222:./libraries/drivers/src/at32f413_tmr.c **** {
 2337              		.loc 1 1222 1 is_stmt 1 view -0
 2338              		.cfi_startproc
 2339              		@ args = 0, pretend = 0, frame = 0
 2340              		@ frame_needed = 0, uses_anonymous_args = 0
 2341              		@ link register save eliminated.
1223:./libraries/drivers/src/at32f413_tmr.c ****   tmr_x->ctrl2_bit.cbctrl = new_state;
 2342              		.loc 1 1223 3 view .LVU607
 2343              		.loc 1 1223 27 is_stmt 0 view .LVU608
 2344 0000 4368     		ldr	r3, [r0, #4]
 2345 0002 61F30003 		bfi	r3, r1, #0, #1
 2346 0006 4360     		str	r3, [r0, #4]
1224:./libraries/drivers/src/at32f413_tmr.c **** }
 2347              		.loc 1 1224 1 view .LVU609
 2348 0008 7047     		bx	lr
 2349              		.cfi_endproc
 2350              	.LFE170:
 2352              		.section	.text.tmr_trigger_input_select,"ax",%progbits
 2353              		.align	1
 2354              		.global	tmr_trigger_input_select
 2355              		.syntax unified
 2356              		.thumb
 2357              		.thumb_func
 2358              		.fpu fpv4-sp-d16
 2360              	tmr_trigger_input_select:
 2361              	.LVL135:
 2362              	.LFB171:
1225:./libraries/drivers/src/at32f413_tmr.c **** 
1226:./libraries/drivers/src/at32f413_tmr.c **** /**
1227:./libraries/drivers/src/at32f413_tmr.c ****   * @brief  select tmr sub-trigger
1228:./libraries/drivers/src/at32f413_tmr.c ****   * @param  tmr_x: select the tmr peripheral.
1229:./libraries/drivers/src/at32f413_tmr.c ****   *         this parameter can be one of the following values:
1230:./libraries/drivers/src/at32f413_tmr.c ****   *         TMR1, TMR2, TMR3, TMR4, TMR5, TMR8, TMR9
1231:./libraries/drivers/src/at32f413_tmr.c ****   * @param  trigger_select
1232:./libraries/drivers/src/at32f413_tmr.c ****   *         this parameter can be one of the following values:
1233:./libraries/drivers/src/at32f413_tmr.c ****   *         - TMR_SUB_INPUT_SEL_IS0
1234:./libraries/drivers/src/at32f413_tmr.c ****   *         - TMR_SUB_INPUT_SEL_IS1
1235:./libraries/drivers/src/at32f413_tmr.c ****   *         - TMR_SUB_INPUT_SEL_IS2
1236:./libraries/drivers/src/at32f413_tmr.c ****   *         - TMR_SUB_INPUT_SEL_IS3
1237:./libraries/drivers/src/at32f413_tmr.c ****   *         - TMR_SUB_INPUT_SEL_C1INC
1238:./libraries/drivers/src/at32f413_tmr.c ****   *         - TMR_SUB_INPUT_SEL_C1DF1
1239:./libraries/drivers/src/at32f413_tmr.c ****   *         - TMR_SUB_INPUT_SEL_C2DF2
1240:./libraries/drivers/src/at32f413_tmr.c ****   *         - TMR_SUB_INPUT_SEL_EXTIN
1241:./libraries/drivers/src/at32f413_tmr.c ****   * @retval none
1242:./libraries/drivers/src/at32f413_tmr.c ****   */
ARM GAS  C:\Users\J\AppData\Local\Temp\ccrWFtxe.s 			page 65


1243:./libraries/drivers/src/at32f413_tmr.c **** void tmr_trigger_input_select(tmr_type *tmr_x, sub_tmr_input_sel_type trigger_select)
1244:./libraries/drivers/src/at32f413_tmr.c **** {
 2363              		.loc 1 1244 1 is_stmt 1 view -0
 2364              		.cfi_startproc
 2365              		@ args = 0, pretend = 0, frame = 0
 2366              		@ frame_needed = 0, uses_anonymous_args = 0
 2367              		@ link register save eliminated.
1245:./libraries/drivers/src/at32f413_tmr.c ****   tmr_x->stctrl_bit.stis = trigger_select;
 2368              		.loc 1 1245 3 view .LVU611
 2369              		.loc 1 1245 26 is_stmt 0 view .LVU612
 2370 0000 8368     		ldr	r3, [r0, #8]
 2371 0002 61F30613 		bfi	r3, r1, #4, #3
 2372 0006 8360     		str	r3, [r0, #8]
1246:./libraries/drivers/src/at32f413_tmr.c **** }
 2373              		.loc 1 1246 1 view .LVU613
 2374 0008 7047     		bx	lr
 2375              		.cfi_endproc
 2376              	.LFE171:
 2378              		.section	.text.tmr_sub_sync_mode_set,"ax",%progbits
 2379              		.align	1
 2380              		.global	tmr_sub_sync_mode_set
 2381              		.syntax unified
 2382              		.thumb
 2383              		.thumb_func
 2384              		.fpu fpv4-sp-d16
 2386              	tmr_sub_sync_mode_set:
 2387              	.LVL136:
 2388              	.LFB172:
1247:./libraries/drivers/src/at32f413_tmr.c **** 
1248:./libraries/drivers/src/at32f413_tmr.c **** /**
1249:./libraries/drivers/src/at32f413_tmr.c ****   * @brief  set tmr subordinate synchronization mode
1250:./libraries/drivers/src/at32f413_tmr.c ****   * @param  tmr_x: select the tmr peripheral.
1251:./libraries/drivers/src/at32f413_tmr.c ****   *         this parameter can be one of the following values:
1252:./libraries/drivers/src/at32f413_tmr.c ****   *         TMR1, TMR2, TMR3, TMR4, TMR5, TMR8, TMR9
1253:./libraries/drivers/src/at32f413_tmr.c ****   * @param  new_state (TRUE or FALSE)
1254:./libraries/drivers/src/at32f413_tmr.c ****   * @retval none
1255:./libraries/drivers/src/at32f413_tmr.c ****   */
1256:./libraries/drivers/src/at32f413_tmr.c **** void tmr_sub_sync_mode_set(tmr_type *tmr_x, confirm_state new_state)
1257:./libraries/drivers/src/at32f413_tmr.c **** {
 2389              		.loc 1 1257 1 is_stmt 1 view -0
 2390              		.cfi_startproc
 2391              		@ args = 0, pretend = 0, frame = 0
 2392              		@ frame_needed = 0, uses_anonymous_args = 0
 2393              		@ link register save eliminated.
1258:./libraries/drivers/src/at32f413_tmr.c ****   tmr_x->stctrl_bit.sts = new_state;
 2394              		.loc 1 1258 3 view .LVU615
 2395              		.loc 1 1258 25 is_stmt 0 view .LVU616
 2396 0000 8368     		ldr	r3, [r0, #8]
 2397 0002 61F3C713 		bfi	r3, r1, #7, #1
 2398 0006 8360     		str	r3, [r0, #8]
1259:./libraries/drivers/src/at32f413_tmr.c **** }
 2399              		.loc 1 1259 1 view .LVU617
 2400 0008 7047     		bx	lr
 2401              		.cfi_endproc
 2402              	.LFE172:
 2404              		.section	.text.tmr_dma_request_enable,"ax",%progbits
 2405              		.align	1
ARM GAS  C:\Users\J\AppData\Local\Temp\ccrWFtxe.s 			page 66


 2406              		.global	tmr_dma_request_enable
 2407              		.syntax unified
 2408              		.thumb
 2409              		.thumb_func
 2410              		.fpu fpv4-sp-d16
 2412              	tmr_dma_request_enable:
 2413              	.LVL137:
 2414              	.LFB173:
1260:./libraries/drivers/src/at32f413_tmr.c **** 
1261:./libraries/drivers/src/at32f413_tmr.c **** /**
1262:./libraries/drivers/src/at32f413_tmr.c ****   * @brief  enable or disable tmr dma request
1263:./libraries/drivers/src/at32f413_tmr.c ****   * @param  tmr_x: select the tmr peripheral.
1264:./libraries/drivers/src/at32f413_tmr.c ****   *         this parameter can be one of the following values:
1265:./libraries/drivers/src/at32f413_tmr.c ****   *         TMR1, TMR2, TMR3, TMR4, TMR5, TMR8, TMR9, TMR10,
1266:./libraries/drivers/src/at32f413_tmr.c ****   *         TMR11
1267:./libraries/drivers/src/at32f413_tmr.c ****   * @param  dma_request
1268:./libraries/drivers/src/at32f413_tmr.c ****   *         this parameter can be one of the following values:
1269:./libraries/drivers/src/at32f413_tmr.c ****   *         - TMR_OVERFLOW_DMA_REQUEST
1270:./libraries/drivers/src/at32f413_tmr.c ****   *         - TMR_C1_DMA_REQUEST
1271:./libraries/drivers/src/at32f413_tmr.c ****   *         - TMR_C2_DMA_REQUEST
1272:./libraries/drivers/src/at32f413_tmr.c ****   *         - TMR_C3_DMA_REQUEST
1273:./libraries/drivers/src/at32f413_tmr.c ****   *         - TMR_C4_DMA_REQUEST
1274:./libraries/drivers/src/at32f413_tmr.c ****   *         - TMR_HALL_DMA_REQUEST
1275:./libraries/drivers/src/at32f413_tmr.c ****   *         - TMR_TRIGGER_DMA_REQUEST
1276:./libraries/drivers/src/at32f413_tmr.c ****   * @param  new_state (TRUE or FALSE)
1277:./libraries/drivers/src/at32f413_tmr.c ****   * @retval none
1278:./libraries/drivers/src/at32f413_tmr.c ****   */
1279:./libraries/drivers/src/at32f413_tmr.c **** void tmr_dma_request_enable(tmr_type *tmr_x, tmr_dma_request_type dma_request, confirm_state new_st
1280:./libraries/drivers/src/at32f413_tmr.c **** {
 2415              		.loc 1 1280 1 is_stmt 1 view -0
 2416              		.cfi_startproc
 2417              		@ args = 0, pretend = 0, frame = 0
 2418              		@ frame_needed = 0, uses_anonymous_args = 0
 2419              		@ link register save eliminated.
1281:./libraries/drivers/src/at32f413_tmr.c ****   if(new_state == TRUE)
 2420              		.loc 1 1281 3 view .LVU619
 2421              		.loc 1 1281 5 is_stmt 0 view .LVU620
 2422 0000 012A     		cmp	r2, #1
 2423 0002 05D0     		beq	.L168
1282:./libraries/drivers/src/at32f413_tmr.c ****   {
1283:./libraries/drivers/src/at32f413_tmr.c ****     tmr_x->iden |= dma_request;
1284:./libraries/drivers/src/at32f413_tmr.c ****   }
1285:./libraries/drivers/src/at32f413_tmr.c ****   else if(new_state == FALSE)
 2424              		.loc 1 1285 8 is_stmt 1 view .LVU621
 2425              		.loc 1 1285 10 is_stmt 0 view .LVU622
 2426 0004 1AB9     		cbnz	r2, .L165
1286:./libraries/drivers/src/at32f413_tmr.c ****   {
1287:./libraries/drivers/src/at32f413_tmr.c ****     tmr_x->iden &= ~dma_request;
 2427              		.loc 1 1287 5 is_stmt 1 view .LVU623
 2428              		.loc 1 1287 17 is_stmt 0 view .LVU624
 2429 0006 C368     		ldr	r3, [r0, #12]
 2430 0008 23EA0101 		bic	r1, r3, r1
 2431              	.LVL138:
 2432              		.loc 1 1287 17 view .LVU625
 2433 000c C160     		str	r1, [r0, #12]
 2434              	.L165:
1288:./libraries/drivers/src/at32f413_tmr.c ****   }
ARM GAS  C:\Users\J\AppData\Local\Temp\ccrWFtxe.s 			page 67


1289:./libraries/drivers/src/at32f413_tmr.c **** }
 2435              		.loc 1 1289 1 view .LVU626
 2436 000e 7047     		bx	lr
 2437              	.LVL139:
 2438              	.L168:
1283:./libraries/drivers/src/at32f413_tmr.c ****   }
 2439              		.loc 1 1283 5 is_stmt 1 view .LVU627
1283:./libraries/drivers/src/at32f413_tmr.c ****   }
 2440              		.loc 1 1283 17 is_stmt 0 view .LVU628
 2441 0010 C368     		ldr	r3, [r0, #12]
 2442 0012 1943     		orrs	r1, r1, r3
 2443              	.LVL140:
1283:./libraries/drivers/src/at32f413_tmr.c ****   }
 2444              		.loc 1 1283 17 view .LVU629
 2445 0014 C160     		str	r1, [r0, #12]
 2446 0016 7047     		bx	lr
 2447              		.cfi_endproc
 2448              	.LFE173:
 2450              		.section	.text.tmr_interrupt_enable,"ax",%progbits
 2451              		.align	1
 2452              		.global	tmr_interrupt_enable
 2453              		.syntax unified
 2454              		.thumb
 2455              		.thumb_func
 2456              		.fpu fpv4-sp-d16
 2458              	tmr_interrupt_enable:
 2459              	.LVL141:
 2460              	.LFB174:
1290:./libraries/drivers/src/at32f413_tmr.c **** 
1291:./libraries/drivers/src/at32f413_tmr.c **** /**
1292:./libraries/drivers/src/at32f413_tmr.c ****   * @brief  enable or disable tmr interrupt
1293:./libraries/drivers/src/at32f413_tmr.c ****   * @param  tmr_x: select the tmr peripheral.
1294:./libraries/drivers/src/at32f413_tmr.c ****   *         this parameter can be one of the following values:
1295:./libraries/drivers/src/at32f413_tmr.c ****   *         TMR1, TMR2, TMR3, TMR4, TMR5, TMR8, TMR9, TMR10,
1296:./libraries/drivers/src/at32f413_tmr.c ****   *         TMR11
1297:./libraries/drivers/src/at32f413_tmr.c ****   * @param  tmr_interrupt
1298:./libraries/drivers/src/at32f413_tmr.c ****   *         this parameter can be one of the following values:
1299:./libraries/drivers/src/at32f413_tmr.c ****   *         - TMR_OVF_INT
1300:./libraries/drivers/src/at32f413_tmr.c ****   *         - TMR_C1_INT
1301:./libraries/drivers/src/at32f413_tmr.c ****   *         - TMR_C2_INT
1302:./libraries/drivers/src/at32f413_tmr.c ****   *         - TMR_C3_INT
1303:./libraries/drivers/src/at32f413_tmr.c ****   *         - TMR_C4_INT
1304:./libraries/drivers/src/at32f413_tmr.c ****   *         - TMR_HALL_INT
1305:./libraries/drivers/src/at32f413_tmr.c ****   *         - TMR_TRIGGER_INT
1306:./libraries/drivers/src/at32f413_tmr.c ****   *         - TMR_BRK_INT
1307:./libraries/drivers/src/at32f413_tmr.c ****   * @param  new_state (TRUE or FALSE)
1308:./libraries/drivers/src/at32f413_tmr.c ****   * @retval none
1309:./libraries/drivers/src/at32f413_tmr.c ****   */
1310:./libraries/drivers/src/at32f413_tmr.c **** void tmr_interrupt_enable(tmr_type *tmr_x, uint32_t tmr_interrupt, confirm_state new_state)
1311:./libraries/drivers/src/at32f413_tmr.c **** {
 2461              		.loc 1 1311 1 is_stmt 1 view -0
 2462              		.cfi_startproc
 2463              		@ args = 0, pretend = 0, frame = 0
 2464              		@ frame_needed = 0, uses_anonymous_args = 0
 2465              		@ link register save eliminated.
1312:./libraries/drivers/src/at32f413_tmr.c ****   if(new_state == TRUE)
 2466              		.loc 1 1312 3 view .LVU631
ARM GAS  C:\Users\J\AppData\Local\Temp\ccrWFtxe.s 			page 68


 2467              		.loc 1 1312 5 is_stmt 0 view .LVU632
 2468 0000 012A     		cmp	r2, #1
 2469 0002 05D0     		beq	.L172
1313:./libraries/drivers/src/at32f413_tmr.c ****   {
1314:./libraries/drivers/src/at32f413_tmr.c ****     tmr_x->iden |= tmr_interrupt;
1315:./libraries/drivers/src/at32f413_tmr.c ****   }
1316:./libraries/drivers/src/at32f413_tmr.c ****   else if(new_state == FALSE)
 2470              		.loc 1 1316 8 is_stmt 1 view .LVU633
 2471              		.loc 1 1316 10 is_stmt 0 view .LVU634
 2472 0004 1AB9     		cbnz	r2, .L169
1317:./libraries/drivers/src/at32f413_tmr.c ****   {
1318:./libraries/drivers/src/at32f413_tmr.c ****     tmr_x->iden &= ~tmr_interrupt;
 2473              		.loc 1 1318 5 is_stmt 1 view .LVU635
 2474              		.loc 1 1318 17 is_stmt 0 view .LVU636
 2475 0006 C368     		ldr	r3, [r0, #12]
 2476 0008 23EA0101 		bic	r1, r3, r1
 2477              	.LVL142:
 2478              		.loc 1 1318 17 view .LVU637
 2479 000c C160     		str	r1, [r0, #12]
 2480              	.L169:
1319:./libraries/drivers/src/at32f413_tmr.c ****   }
1320:./libraries/drivers/src/at32f413_tmr.c **** }
 2481              		.loc 1 1320 1 view .LVU638
 2482 000e 7047     		bx	lr
 2483              	.LVL143:
 2484              	.L172:
1314:./libraries/drivers/src/at32f413_tmr.c ****   }
 2485              		.loc 1 1314 5 is_stmt 1 view .LVU639
1314:./libraries/drivers/src/at32f413_tmr.c ****   }
 2486              		.loc 1 1314 17 is_stmt 0 view .LVU640
 2487 0010 C368     		ldr	r3, [r0, #12]
 2488 0012 1943     		orrs	r1, r1, r3
 2489              	.LVL144:
1314:./libraries/drivers/src/at32f413_tmr.c ****   }
 2490              		.loc 1 1314 17 view .LVU641
 2491 0014 C160     		str	r1, [r0, #12]
 2492 0016 7047     		bx	lr
 2493              		.cfi_endproc
 2494              	.LFE174:
 2496              		.section	.text.tmr_flag_get,"ax",%progbits
 2497              		.align	1
 2498              		.global	tmr_flag_get
 2499              		.syntax unified
 2500              		.thumb
 2501              		.thumb_func
 2502              		.fpu fpv4-sp-d16
 2504              	tmr_flag_get:
 2505              	.LVL145:
 2506              	.LFB175:
1321:./libraries/drivers/src/at32f413_tmr.c **** 
1322:./libraries/drivers/src/at32f413_tmr.c **** /**
1323:./libraries/drivers/src/at32f413_tmr.c ****   * @brief  get tmr flag
1324:./libraries/drivers/src/at32f413_tmr.c ****   * @param  tmr_x: select the tmr peripheral.
1325:./libraries/drivers/src/at32f413_tmr.c ****   *         this parameter can be one of the following values:
1326:./libraries/drivers/src/at32f413_tmr.c ****   *         TMR1, TMR2, TMR3, TMR4, TMR5, TMR8, TMR9, TMR10,
1327:./libraries/drivers/src/at32f413_tmr.c ****   *         TMR11
1328:./libraries/drivers/src/at32f413_tmr.c ****   * @param  tmr_flag
ARM GAS  C:\Users\J\AppData\Local\Temp\ccrWFtxe.s 			page 69


1329:./libraries/drivers/src/at32f413_tmr.c ****   *         this parameter can be one of the following values:
1330:./libraries/drivers/src/at32f413_tmr.c ****   *         - TMR_OVF_FLAG
1331:./libraries/drivers/src/at32f413_tmr.c ****   *         - TMR_C1_FLAG
1332:./libraries/drivers/src/at32f413_tmr.c ****   *         - TMR_C2_FLAG
1333:./libraries/drivers/src/at32f413_tmr.c ****   *         - TMR_C3_FLAG
1334:./libraries/drivers/src/at32f413_tmr.c ****   *         - TMR_C4_FLAG
1335:./libraries/drivers/src/at32f413_tmr.c ****   *         - TMR_HALL_FLAG
1336:./libraries/drivers/src/at32f413_tmr.c ****   *         - TMR_TRIGGER_FLAG
1337:./libraries/drivers/src/at32f413_tmr.c ****   *         - TMR_BRK_FLAG
1338:./libraries/drivers/src/at32f413_tmr.c ****   *         - TMR_C1_RECAPTURE_FLAG
1339:./libraries/drivers/src/at32f413_tmr.c ****   *         - TMR_C2_RECAPTURE_FLAG
1340:./libraries/drivers/src/at32f413_tmr.c ****   *         - TMR_C3_RECAPTURE_FLAG
1341:./libraries/drivers/src/at32f413_tmr.c ****   *         - TMR_C4_RECAPTURE_FLAG
1342:./libraries/drivers/src/at32f413_tmr.c ****   * @retval state of tmr flag
1343:./libraries/drivers/src/at32f413_tmr.c ****   */
1344:./libraries/drivers/src/at32f413_tmr.c **** flag_status tmr_flag_get(tmr_type *tmr_x, uint32_t tmr_flag)
1345:./libraries/drivers/src/at32f413_tmr.c **** {
 2507              		.loc 1 1345 1 is_stmt 1 view -0
 2508              		.cfi_startproc
 2509              		@ args = 0, pretend = 0, frame = 0
 2510              		@ frame_needed = 0, uses_anonymous_args = 0
 2511              		@ link register save eliminated.
1346:./libraries/drivers/src/at32f413_tmr.c ****   flag_status status = RESET;
 2512              		.loc 1 1346 3 view .LVU643
1347:./libraries/drivers/src/at32f413_tmr.c **** 
1348:./libraries/drivers/src/at32f413_tmr.c ****   if((tmr_x->ists & tmr_flag) != RESET)
 2513              		.loc 1 1348 3 view .LVU644
 2514              		.loc 1 1348 12 is_stmt 0 view .LVU645
 2515 0000 0369     		ldr	r3, [r0, #16]
 2516              		.loc 1 1348 5 view .LVU646
 2517 0002 0B42     		tst	r3, r1
 2518 0004 01D0     		beq	.L175
1349:./libraries/drivers/src/at32f413_tmr.c ****   {
1350:./libraries/drivers/src/at32f413_tmr.c ****     status = SET;
 2519              		.loc 1 1350 12 view .LVU647
 2520 0006 0120     		movs	r0, #1
 2521              	.LVL146:
 2522              		.loc 1 1350 12 view .LVU648
 2523 0008 7047     		bx	lr
 2524              	.LVL147:
 2525              	.L175:
1351:./libraries/drivers/src/at32f413_tmr.c ****   }
1352:./libraries/drivers/src/at32f413_tmr.c ****   else
1353:./libraries/drivers/src/at32f413_tmr.c ****   {
1354:./libraries/drivers/src/at32f413_tmr.c ****     status = RESET;
 2526              		.loc 1 1354 12 view .LVU649
 2527 000a 0020     		movs	r0, #0
 2528              	.LVL148:
1355:./libraries/drivers/src/at32f413_tmr.c ****   }
1356:./libraries/drivers/src/at32f413_tmr.c **** 
1357:./libraries/drivers/src/at32f413_tmr.c ****   return status;
 2529              		.loc 1 1357 3 is_stmt 1 view .LVU650
1358:./libraries/drivers/src/at32f413_tmr.c **** }
 2530              		.loc 1 1358 1 is_stmt 0 view .LVU651
 2531 000c 7047     		bx	lr
 2532              		.cfi_endproc
 2533              	.LFE175:
ARM GAS  C:\Users\J\AppData\Local\Temp\ccrWFtxe.s 			page 70


 2535              		.section	.text.tmr_flag_clear,"ax",%progbits
 2536              		.align	1
 2537              		.global	tmr_flag_clear
 2538              		.syntax unified
 2539              		.thumb
 2540              		.thumb_func
 2541              		.fpu fpv4-sp-d16
 2543              	tmr_flag_clear:
 2544              	.LVL149:
 2545              	.LFB176:
1359:./libraries/drivers/src/at32f413_tmr.c **** 
1360:./libraries/drivers/src/at32f413_tmr.c **** /**
1361:./libraries/drivers/src/at32f413_tmr.c ****   * @brief  clear tmr flag
1362:./libraries/drivers/src/at32f413_tmr.c ****   * @param  tmr_x: select the tmr peripheral.
1363:./libraries/drivers/src/at32f413_tmr.c ****   *         this parameter can be one of the following values:
1364:./libraries/drivers/src/at32f413_tmr.c ****   *         TMR1, TMR2, TMR3, TMR4, TMR5, TMR8, TMR9, TMR10,
1365:./libraries/drivers/src/at32f413_tmr.c ****   *         TMR11
1366:./libraries/drivers/src/at32f413_tmr.c ****   * @param  tmr_flag
1367:./libraries/drivers/src/at32f413_tmr.c ****   *         this parameter can be any combination of the following values:
1368:./libraries/drivers/src/at32f413_tmr.c ****   *         - TMR_OVF_FLAG
1369:./libraries/drivers/src/at32f413_tmr.c ****   *         - TMR_C1_FLAG
1370:./libraries/drivers/src/at32f413_tmr.c ****   *         - TMR_C2_FLAG
1371:./libraries/drivers/src/at32f413_tmr.c ****   *         - TMR_C3_FLAG
1372:./libraries/drivers/src/at32f413_tmr.c ****   *         - TMR_C4_FLAG
1373:./libraries/drivers/src/at32f413_tmr.c ****   *         - TMR_HALL_FLAG
1374:./libraries/drivers/src/at32f413_tmr.c ****   *         - TMR_TRIGGER_FLAG
1375:./libraries/drivers/src/at32f413_tmr.c ****   *         - TMR_BRK_FLAG
1376:./libraries/drivers/src/at32f413_tmr.c ****   *         - TMR_C1_RECAPTURE_FLAG
1377:./libraries/drivers/src/at32f413_tmr.c ****   *         - TMR_C2_RECAPTURE_FLAG
1378:./libraries/drivers/src/at32f413_tmr.c ****   *         - TMR_C3_RECAPTURE_FLAG
1379:./libraries/drivers/src/at32f413_tmr.c ****   *         - TMR_C4_RECAPTURE_FLAG
1380:./libraries/drivers/src/at32f413_tmr.c ****   * @retval none
1381:./libraries/drivers/src/at32f413_tmr.c ****   */
1382:./libraries/drivers/src/at32f413_tmr.c **** void tmr_flag_clear(tmr_type *tmr_x, uint32_t tmr_flag)
1383:./libraries/drivers/src/at32f413_tmr.c **** {
 2546              		.loc 1 1383 1 is_stmt 1 view -0
 2547              		.cfi_startproc
 2548              		@ args = 0, pretend = 0, frame = 0
 2549              		@ frame_needed = 0, uses_anonymous_args = 0
 2550              		@ link register save eliminated.
1384:./libraries/drivers/src/at32f413_tmr.c ****   tmr_x->ists = ~tmr_flag;
 2551              		.loc 1 1384 3 view .LVU653
 2552              		.loc 1 1384 17 is_stmt 0 view .LVU654
 2553 0000 C943     		mvns	r1, r1
 2554              	.LVL150:
 2555              		.loc 1 1384 15 view .LVU655
 2556 0002 0161     		str	r1, [r0, #16]
1385:./libraries/drivers/src/at32f413_tmr.c **** }
 2557              		.loc 1 1385 1 view .LVU656
 2558 0004 7047     		bx	lr
 2559              		.cfi_endproc
 2560              	.LFE176:
 2562              		.section	.text.tmr_event_sw_trigger,"ax",%progbits
 2563              		.align	1
 2564              		.global	tmr_event_sw_trigger
 2565              		.syntax unified
 2566              		.thumb
ARM GAS  C:\Users\J\AppData\Local\Temp\ccrWFtxe.s 			page 71


 2567              		.thumb_func
 2568              		.fpu fpv4-sp-d16
 2570              	tmr_event_sw_trigger:
 2571              	.LVL151:
 2572              	.LFB177:
1386:./libraries/drivers/src/at32f413_tmr.c **** 
1387:./libraries/drivers/src/at32f413_tmr.c **** /**
1388:./libraries/drivers/src/at32f413_tmr.c ****   * @brief  generate tmr event
1389:./libraries/drivers/src/at32f413_tmr.c ****   * @param  tmr_x: select the tmr peripheral.
1390:./libraries/drivers/src/at32f413_tmr.c ****   *         this parameter can be one of the following values:
1391:./libraries/drivers/src/at32f413_tmr.c ****   *         TMR1, TMR2, TMR3, TMR4, TMR5, TMR8, TMR9, TMR10,
1392:./libraries/drivers/src/at32f413_tmr.c ****   *         TMR11
1393:./libraries/drivers/src/at32f413_tmr.c ****   * @param  tmr_event
1394:./libraries/drivers/src/at32f413_tmr.c ****   *         this parameter can be one of the following values:
1395:./libraries/drivers/src/at32f413_tmr.c ****   *         - TMR_OVERFLOW_SWTRIG
1396:./libraries/drivers/src/at32f413_tmr.c ****   *         - TMR_C1_SWTRIG
1397:./libraries/drivers/src/at32f413_tmr.c ****   *         - TMR_C2_SWTRIG
1398:./libraries/drivers/src/at32f413_tmr.c ****   *         - TMR_C3_SWTRIG
1399:./libraries/drivers/src/at32f413_tmr.c ****   *         - TMR_C4_SWTRIG
1400:./libraries/drivers/src/at32f413_tmr.c ****   *         - TMR_HALL_SWTRIG
1401:./libraries/drivers/src/at32f413_tmr.c ****   *         - TMR_TRIGGER_SWTRIG
1402:./libraries/drivers/src/at32f413_tmr.c ****   *         - TMR_BRK_SWTRIG
1403:./libraries/drivers/src/at32f413_tmr.c ****   * @retval none
1404:./libraries/drivers/src/at32f413_tmr.c ****   */
1405:./libraries/drivers/src/at32f413_tmr.c **** void tmr_event_sw_trigger(tmr_type *tmr_x, tmr_event_trigger_type tmr_event)
1406:./libraries/drivers/src/at32f413_tmr.c **** {
 2573              		.loc 1 1406 1 is_stmt 1 view -0
 2574              		.cfi_startproc
 2575              		@ args = 0, pretend = 0, frame = 0
 2576              		@ frame_needed = 0, uses_anonymous_args = 0
 2577              		@ link register save eliminated.
1407:./libraries/drivers/src/at32f413_tmr.c ****   tmr_x->swevt |= tmr_event;
 2578              		.loc 1 1407 3 view .LVU658
 2579              		.loc 1 1407 16 is_stmt 0 view .LVU659
 2580 0000 4369     		ldr	r3, [r0, #20]
 2581 0002 1943     		orrs	r1, r1, r3
 2582              	.LVL152:
 2583              		.loc 1 1407 16 view .LVU660
 2584 0004 4161     		str	r1, [r0, #20]
1408:./libraries/drivers/src/at32f413_tmr.c **** }
 2585              		.loc 1 1408 1 view .LVU661
 2586 0006 7047     		bx	lr
 2587              		.cfi_endproc
 2588              	.LFE177:
 2590              		.section	.text.tmr_output_enable,"ax",%progbits
 2591              		.align	1
 2592              		.global	tmr_output_enable
 2593              		.syntax unified
 2594              		.thumb
 2595              		.thumb_func
 2596              		.fpu fpv4-sp-d16
 2598              	tmr_output_enable:
 2599              	.LVL153:
 2600              	.LFB178:
1409:./libraries/drivers/src/at32f413_tmr.c **** 
1410:./libraries/drivers/src/at32f413_tmr.c **** /**
1411:./libraries/drivers/src/at32f413_tmr.c ****   * @brief  tmr output enable(oen),this function is important for advtm output enable
ARM GAS  C:\Users\J\AppData\Local\Temp\ccrWFtxe.s 			page 72


1412:./libraries/drivers/src/at32f413_tmr.c ****   * @param  tmr_x: select the tmr peripheral.
1413:./libraries/drivers/src/at32f413_tmr.c ****   *         this parameter can be one of the following values:
1414:./libraries/drivers/src/at32f413_tmr.c ****   *         TMR1, TMR8
1415:./libraries/drivers/src/at32f413_tmr.c ****   * @param  new_state (TRUE or FALSE)
1416:./libraries/drivers/src/at32f413_tmr.c ****   * @retval none
1417:./libraries/drivers/src/at32f413_tmr.c ****   */
1418:./libraries/drivers/src/at32f413_tmr.c **** void tmr_output_enable(tmr_type *tmr_x, confirm_state new_state)
1419:./libraries/drivers/src/at32f413_tmr.c **** {
 2601              		.loc 1 1419 1 is_stmt 1 view -0
 2602              		.cfi_startproc
 2603              		@ args = 0, pretend = 0, frame = 0
 2604              		@ frame_needed = 0, uses_anonymous_args = 0
 2605              		@ link register save eliminated.
1420:./libraries/drivers/src/at32f413_tmr.c ****   tmr_x->brk_bit.oen = new_state;
 2606              		.loc 1 1420 3 view .LVU663
 2607              		.loc 1 1420 22 is_stmt 0 view .LVU664
 2608 0000 436C     		ldr	r3, [r0, #68]
 2609 0002 61F3CF33 		bfi	r3, r1, #15, #1
 2610 0006 4364     		str	r3, [r0, #68]
1421:./libraries/drivers/src/at32f413_tmr.c **** }
 2611              		.loc 1 1421 1 view .LVU665
 2612 0008 7047     		bx	lr
 2613              		.cfi_endproc
 2614              	.LFE178:
 2616              		.section	.text.tmr_internal_clock_set,"ax",%progbits
 2617              		.align	1
 2618              		.global	tmr_internal_clock_set
 2619              		.syntax unified
 2620              		.thumb
 2621              		.thumb_func
 2622              		.fpu fpv4-sp-d16
 2624              	tmr_internal_clock_set:
 2625              	.LVL154:
 2626              	.LFB179:
1422:./libraries/drivers/src/at32f413_tmr.c **** 
1423:./libraries/drivers/src/at32f413_tmr.c **** /**
1424:./libraries/drivers/src/at32f413_tmr.c ****   * @brief  set tmr select internal clock
1425:./libraries/drivers/src/at32f413_tmr.c ****   * @param  tmr_x: select the tmr peripheral.
1426:./libraries/drivers/src/at32f413_tmr.c ****   *         this parameter can be one of the following values:
1427:./libraries/drivers/src/at32f413_tmr.c ****   *         TMR1, TMR2, TMR3, TMR4, TMR5, TMR8, TMR9
1428:./libraries/drivers/src/at32f413_tmr.c ****   * @retval none
1429:./libraries/drivers/src/at32f413_tmr.c ****   */
1430:./libraries/drivers/src/at32f413_tmr.c **** void tmr_internal_clock_set(tmr_type *tmr_x)
1431:./libraries/drivers/src/at32f413_tmr.c **** {
 2627              		.loc 1 1431 1 is_stmt 1 view -0
 2628              		.cfi_startproc
 2629              		@ args = 0, pretend = 0, frame = 0
 2630              		@ frame_needed = 0, uses_anonymous_args = 0
 2631              		@ link register save eliminated.
1432:./libraries/drivers/src/at32f413_tmr.c ****   tmr_x->stctrl_bit.smsel = TMR_SUB_MODE_DIABLE;
 2632              		.loc 1 1432 3 view .LVU667
 2633              		.loc 1 1432 27 is_stmt 0 view .LVU668
 2634 0000 8368     		ldr	r3, [r0, #8]
 2635 0002 6FF30203 		bfc	r3, #0, #3
 2636 0006 8360     		str	r3, [r0, #8]
1433:./libraries/drivers/src/at32f413_tmr.c **** }
 2637              		.loc 1 1433 1 view .LVU669
ARM GAS  C:\Users\J\AppData\Local\Temp\ccrWFtxe.s 			page 73


 2638 0008 7047     		bx	lr
 2639              		.cfi_endproc
 2640              	.LFE179:
 2642              		.section	.text.tmr_output_channel_polarity_set,"ax",%progbits
 2643              		.align	1
 2644              		.global	tmr_output_channel_polarity_set
 2645              		.syntax unified
 2646              		.thumb
 2647              		.thumb_func
 2648              		.fpu fpv4-sp-d16
 2650              	tmr_output_channel_polarity_set:
 2651              	.LVL155:
 2652              	.LFB180:
1434:./libraries/drivers/src/at32f413_tmr.c **** 
1435:./libraries/drivers/src/at32f413_tmr.c **** /**
1436:./libraries/drivers/src/at32f413_tmr.c ****   * @brief  set tmr output channel polarity
1437:./libraries/drivers/src/at32f413_tmr.c ****   * @param  tmr_x: select the tmr peripheral.
1438:./libraries/drivers/src/at32f413_tmr.c ****   *         this parameter can be one of the following values:
1439:./libraries/drivers/src/at32f413_tmr.c ****   *         TMR1, TMR2, TMR3, TMR4, TMR5, TMR8, TMR9, TMR10,
1440:./libraries/drivers/src/at32f413_tmr.c ****   *         TMR11
1441:./libraries/drivers/src/at32f413_tmr.c ****   * @param  tmr_channel
1442:./libraries/drivers/src/at32f413_tmr.c ****   *         this parameter can be one of the following values:
1443:./libraries/drivers/src/at32f413_tmr.c ****   *         - TMR_SELECT_CHANNEL_1
1444:./libraries/drivers/src/at32f413_tmr.c ****   *         - TMR_SELECT_CHANNEL_2
1445:./libraries/drivers/src/at32f413_tmr.c ****   *         - TMR_SELECT_CHANNEL_3
1446:./libraries/drivers/src/at32f413_tmr.c ****   *         - TMR_SELECT_CHANNEL_4
1447:./libraries/drivers/src/at32f413_tmr.c ****   *         - TMR_SELECT_CHANNEL_1C
1448:./libraries/drivers/src/at32f413_tmr.c ****   *         - TMR_SELECT_CHANNEL_2C
1449:./libraries/drivers/src/at32f413_tmr.c ****   *         - TMR_SELECT_CHANNEL_3C
1450:./libraries/drivers/src/at32f413_tmr.c ****   * @param  oc_polarity
1451:./libraries/drivers/src/at32f413_tmr.c ****   *         this parameter can be one of the following values:
1452:./libraries/drivers/src/at32f413_tmr.c ****   *         - TMR_POLARITY_ACTIVE_HIGH
1453:./libraries/drivers/src/at32f413_tmr.c ****   *         - TMR_POLARITY_ACTIVE_LOW
1454:./libraries/drivers/src/at32f413_tmr.c ****   * @retval none
1455:./libraries/drivers/src/at32f413_tmr.c ****   */
1456:./libraries/drivers/src/at32f413_tmr.c **** void tmr_output_channel_polarity_set(tmr_type *tmr_x, tmr_channel_select_type tmr_channel,
1457:./libraries/drivers/src/at32f413_tmr.c ****                                      tmr_polarity_active_type oc_polarity)
1458:./libraries/drivers/src/at32f413_tmr.c **** {
 2653              		.loc 1 1458 1 is_stmt 1 view -0
 2654              		.cfi_startproc
 2655              		@ args = 0, pretend = 0, frame = 0
 2656              		@ frame_needed = 0, uses_anonymous_args = 0
 2657              		@ link register save eliminated.
1459:./libraries/drivers/src/at32f413_tmr.c ****   uint16_t channel;
 2658              		.loc 1 1459 3 view .LVU671
1460:./libraries/drivers/src/at32f413_tmr.c **** 
1461:./libraries/drivers/src/at32f413_tmr.c ****   channel = tmr_channel;
 2659              		.loc 1 1461 3 view .LVU672
1462:./libraries/drivers/src/at32f413_tmr.c **** 
1463:./libraries/drivers/src/at32f413_tmr.c ****   switch(channel)
 2660              		.loc 1 1463 3 view .LVU673
 2661 0000 0629     		cmp	r1, #6
 2662 0002 27D8     		bhi	.L180
 2663 0004 DFE801F0 		tbb	[pc, r1]
 2664              	.L183:
 2665 0008 04       		.byte	(.L189-.L183)/2
 2666 0009 18       		.byte	(.L188-.L183)/2
ARM GAS  C:\Users\J\AppData\Local\Temp\ccrWFtxe.s 			page 74


 2667 000a 09       		.byte	(.L187-.L183)/2
 2668 000b 1D       		.byte	(.L186-.L183)/2
 2669 000c 0E       		.byte	(.L185-.L183)/2
 2670 000d 22       		.byte	(.L184-.L183)/2
 2671 000e 13       		.byte	(.L182-.L183)/2
 2672 000f 00       		.p2align 1
 2673              	.L189:
1464:./libraries/drivers/src/at32f413_tmr.c ****   {
1465:./libraries/drivers/src/at32f413_tmr.c ****     case TMR_SELECT_CHANNEL_1:
1466:./libraries/drivers/src/at32f413_tmr.c ****       tmr_x->cctrl_bit.c1p = (uint32_t)oc_polarity;
 2674              		.loc 1 1466 7 view .LVU674
 2675              		.loc 1 1466 28 is_stmt 0 view .LVU675
 2676 0010 036A     		ldr	r3, [r0, #32]
 2677 0012 62F34103 		bfi	r3, r2, #1, #1
 2678 0016 0362     		str	r3, [r0, #32]
1467:./libraries/drivers/src/at32f413_tmr.c ****       break;
 2679              		.loc 1 1467 7 is_stmt 1 view .LVU676
 2680 0018 7047     		bx	lr
 2681              	.L187:
1468:./libraries/drivers/src/at32f413_tmr.c **** 
1469:./libraries/drivers/src/at32f413_tmr.c ****     case TMR_SELECT_CHANNEL_2:
1470:./libraries/drivers/src/at32f413_tmr.c ****       tmr_x->cctrl_bit.c2p = (uint32_t)oc_polarity;
 2682              		.loc 1 1470 7 view .LVU677
 2683              		.loc 1 1470 28 is_stmt 0 view .LVU678
 2684 001a 036A     		ldr	r3, [r0, #32]
 2685 001c 62F34513 		bfi	r3, r2, #5, #1
 2686 0020 0362     		str	r3, [r0, #32]
1471:./libraries/drivers/src/at32f413_tmr.c ****       break;
 2687              		.loc 1 1471 7 is_stmt 1 view .LVU679
 2688 0022 7047     		bx	lr
 2689              	.L185:
1472:./libraries/drivers/src/at32f413_tmr.c **** 
1473:./libraries/drivers/src/at32f413_tmr.c ****     case TMR_SELECT_CHANNEL_3:
1474:./libraries/drivers/src/at32f413_tmr.c ****       tmr_x->cctrl_bit.c3p = (uint32_t)oc_polarity;
 2690              		.loc 1 1474 7 view .LVU680
 2691              		.loc 1 1474 28 is_stmt 0 view .LVU681
 2692 0024 036A     		ldr	r3, [r0, #32]
 2693 0026 62F34923 		bfi	r3, r2, #9, #1
 2694 002a 0362     		str	r3, [r0, #32]
1475:./libraries/drivers/src/at32f413_tmr.c ****       break;
 2695              		.loc 1 1475 7 is_stmt 1 view .LVU682
 2696 002c 7047     		bx	lr
 2697              	.L182:
1476:./libraries/drivers/src/at32f413_tmr.c **** 
1477:./libraries/drivers/src/at32f413_tmr.c ****     case TMR_SELECT_CHANNEL_4:
1478:./libraries/drivers/src/at32f413_tmr.c ****       tmr_x->cctrl_bit.c4p = (uint32_t)oc_polarity;
 2698              		.loc 1 1478 7 view .LVU683
 2699              		.loc 1 1478 28 is_stmt 0 view .LVU684
 2700 002e 036A     		ldr	r3, [r0, #32]
 2701 0030 62F34D33 		bfi	r3, r2, #13, #1
 2702 0034 0362     		str	r3, [r0, #32]
1479:./libraries/drivers/src/at32f413_tmr.c ****       break;
 2703              		.loc 1 1479 7 is_stmt 1 view .LVU685
 2704 0036 7047     		bx	lr
 2705              	.L188:
1480:./libraries/drivers/src/at32f413_tmr.c **** 
1481:./libraries/drivers/src/at32f413_tmr.c ****     case TMR_SELECT_CHANNEL_1C:
ARM GAS  C:\Users\J\AppData\Local\Temp\ccrWFtxe.s 			page 75


1482:./libraries/drivers/src/at32f413_tmr.c ****       tmr_x->cctrl_bit.c1cp = (uint32_t)oc_polarity;
 2706              		.loc 1 1482 7 view .LVU686
 2707              		.loc 1 1482 29 is_stmt 0 view .LVU687
 2708 0038 036A     		ldr	r3, [r0, #32]
 2709 003a 62F3C303 		bfi	r3, r2, #3, #1
 2710 003e 0362     		str	r3, [r0, #32]
1483:./libraries/drivers/src/at32f413_tmr.c ****       break;
 2711              		.loc 1 1483 7 is_stmt 1 view .LVU688
 2712 0040 7047     		bx	lr
 2713              	.L186:
1484:./libraries/drivers/src/at32f413_tmr.c **** 
1485:./libraries/drivers/src/at32f413_tmr.c ****     case TMR_SELECT_CHANNEL_2C:
1486:./libraries/drivers/src/at32f413_tmr.c ****       tmr_x->cctrl_bit.c2cp = (uint32_t)oc_polarity;
 2714              		.loc 1 1486 7 view .LVU689
 2715              		.loc 1 1486 29 is_stmt 0 view .LVU690
 2716 0042 036A     		ldr	r3, [r0, #32]
 2717 0044 62F3C713 		bfi	r3, r2, #7, #1
 2718 0048 0362     		str	r3, [r0, #32]
1487:./libraries/drivers/src/at32f413_tmr.c ****       break;
 2719              		.loc 1 1487 7 is_stmt 1 view .LVU691
 2720 004a 7047     		bx	lr
 2721              	.L184:
1488:./libraries/drivers/src/at32f413_tmr.c **** 
1489:./libraries/drivers/src/at32f413_tmr.c ****     case TMR_SELECT_CHANNEL_3C:
1490:./libraries/drivers/src/at32f413_tmr.c ****       tmr_x->cctrl_bit.c3cp = (uint32_t)oc_polarity;
 2722              		.loc 1 1490 7 view .LVU692
 2723              		.loc 1 1490 29 is_stmt 0 view .LVU693
 2724 004c 036A     		ldr	r3, [r0, #32]
 2725 004e 62F3CB23 		bfi	r3, r2, #11, #1
 2726 0052 0362     		str	r3, [r0, #32]
1491:./libraries/drivers/src/at32f413_tmr.c ****       break;
 2727              		.loc 1 1491 7 is_stmt 1 view .LVU694
 2728              	.L180:
1492:./libraries/drivers/src/at32f413_tmr.c **** 
1493:./libraries/drivers/src/at32f413_tmr.c ****     default:
1494:./libraries/drivers/src/at32f413_tmr.c ****       break;
1495:./libraries/drivers/src/at32f413_tmr.c ****   }
1496:./libraries/drivers/src/at32f413_tmr.c **** }
 2729              		.loc 1 1496 1 is_stmt 0 view .LVU695
 2730 0054 7047     		bx	lr
 2731              		.cfi_endproc
 2732              	.LFE180:
 2734              		.section	.text.tmr_external_clock_config,"ax",%progbits
 2735              		.align	1
 2736              		.global	tmr_external_clock_config
 2737              		.syntax unified
 2738              		.thumb
 2739              		.thumb_func
 2740              		.fpu fpv4-sp-d16
 2742              	tmr_external_clock_config:
 2743              	.LVL156:
 2744              	.LFB181:
1497:./libraries/drivers/src/at32f413_tmr.c **** 
1498:./libraries/drivers/src/at32f413_tmr.c **** /**
1499:./libraries/drivers/src/at32f413_tmr.c ****   * @brief  config tmr external clock
1500:./libraries/drivers/src/at32f413_tmr.c ****   * @param  tmr_x: select the tmr peripheral.
1501:./libraries/drivers/src/at32f413_tmr.c ****   *         this parameter can be one of the following values:
ARM GAS  C:\Users\J\AppData\Local\Temp\ccrWFtxe.s 			page 76


1502:./libraries/drivers/src/at32f413_tmr.c ****   *         TMR1, TMR2, TMR3, TMR4, TMR5, TMR8
1503:./libraries/drivers/src/at32f413_tmr.c ****   * @param  es_divide
1504:./libraries/drivers/src/at32f413_tmr.c ****   *         this parameter can be one of the following values:
1505:./libraries/drivers/src/at32f413_tmr.c ****   *         - TMR_ES_FREQUENCY_DIV_1
1506:./libraries/drivers/src/at32f413_tmr.c ****   *         - TMR_ES_FREQUENCY_DIV_2
1507:./libraries/drivers/src/at32f413_tmr.c ****   *         - TMR_ES_FREQUENCY_DIV_4
1508:./libraries/drivers/src/at32f413_tmr.c ****   *         - TMR_ES_FREQUENCY_DIV_8
1509:./libraries/drivers/src/at32f413_tmr.c ****   * @param  es_polarity
1510:./libraries/drivers/src/at32f413_tmr.c ****   *         this parameter can be one of the following values:
1511:./libraries/drivers/src/at32f413_tmr.c ****   *         - TMR_ES_POLARITY_NON_INVERTED
1512:./libraries/drivers/src/at32f413_tmr.c ****   *         - TMR_ES_POLARITY_INVERTED
1513:./libraries/drivers/src/at32f413_tmr.c ****   * @param  es_filter (0x0~0xf)
1514:./libraries/drivers/src/at32f413_tmr.c ****   * @retval none
1515:./libraries/drivers/src/at32f413_tmr.c ****   */
1516:./libraries/drivers/src/at32f413_tmr.c **** void tmr_external_clock_config(tmr_type *tmr_x, tmr_external_signal_divider_type es_divide,
1517:./libraries/drivers/src/at32f413_tmr.c ****                                tmr_external_signal_polarity_type  es_polarity, uint16_t es_filter)
1518:./libraries/drivers/src/at32f413_tmr.c **** {
 2745              		.loc 1 1518 1 is_stmt 1 view -0
 2746              		.cfi_startproc
 2747              		@ args = 0, pretend = 0, frame = 0
 2748              		@ frame_needed = 0, uses_anonymous_args = 0
 2749              		@ link register save eliminated.
 2750              		.loc 1 1518 1 is_stmt 0 view .LVU697
 2751 0000 10B4     		push	{r4}
 2752              	.LCFI5:
 2753              		.cfi_def_cfa_offset 4
 2754              		.cfi_offset 4, -4
1519:./libraries/drivers/src/at32f413_tmr.c ****   tmr_x->stctrl_bit.esdiv = es_divide;
 2755              		.loc 1 1519 3 is_stmt 1 view .LVU698
 2756              		.loc 1 1519 27 is_stmt 0 view .LVU699
 2757 0002 8468     		ldr	r4, [r0, #8]
 2758 0004 61F30D34 		bfi	r4, r1, #12, #2
 2759 0008 8460     		str	r4, [r0, #8]
1520:./libraries/drivers/src/at32f413_tmr.c ****   tmr_x->stctrl_bit.esp = es_polarity;
 2760              		.loc 1 1520 3 is_stmt 1 view .LVU700
 2761              		.loc 1 1520 25 is_stmt 0 view .LVU701
 2762 000a 8168     		ldr	r1, [r0, #8]
 2763              	.LVL157:
 2764              		.loc 1 1520 25 view .LVU702
 2765 000c 62F3CF31 		bfi	r1, r2, #15, #1
 2766 0010 8160     		str	r1, [r0, #8]
1521:./libraries/drivers/src/at32f413_tmr.c ****   tmr_x->stctrl_bit.esf = es_filter;
 2767              		.loc 1 1521 3 is_stmt 1 view .LVU703
 2768              		.loc 1 1521 25 is_stmt 0 view .LVU704
 2769 0012 8268     		ldr	r2, [r0, #8]
 2770              	.LVL158:
 2771              		.loc 1 1521 25 view .LVU705
 2772 0014 63F30B22 		bfi	r2, r3, #8, #4
 2773 0018 8260     		str	r2, [r0, #8]
1522:./libraries/drivers/src/at32f413_tmr.c **** }
 2774              		.loc 1 1522 1 view .LVU706
 2775 001a 5DF8044B 		ldr	r4, [sp], #4
 2776              	.LCFI6:
 2777              		.cfi_restore 4
 2778              		.cfi_def_cfa_offset 0
 2779 001e 7047     		bx	lr
 2780              		.cfi_endproc
ARM GAS  C:\Users\J\AppData\Local\Temp\ccrWFtxe.s 			page 77


 2781              	.LFE181:
 2783              		.section	.text.tmr_external_clock_mode1_config,"ax",%progbits
 2784              		.align	1
 2785              		.global	tmr_external_clock_mode1_config
 2786              		.syntax unified
 2787              		.thumb
 2788              		.thumb_func
 2789              		.fpu fpv4-sp-d16
 2791              	tmr_external_clock_mode1_config:
 2792              	.LVL159:
 2793              	.LFB182:
1523:./libraries/drivers/src/at32f413_tmr.c **** 
1524:./libraries/drivers/src/at32f413_tmr.c **** /**
1525:./libraries/drivers/src/at32f413_tmr.c ****   * @brief  config tmr external clock mode1
1526:./libraries/drivers/src/at32f413_tmr.c ****   * @param  tmr_x: select the tmr peripheral.
1527:./libraries/drivers/src/at32f413_tmr.c ****   *         this parameter can be one of the following values:
1528:./libraries/drivers/src/at32f413_tmr.c ****   *         TMR1, TMR2, TMR3, TMR4, TMR5, TMR8, TMR9
1529:./libraries/drivers/src/at32f413_tmr.c ****   * @param  es_divide
1530:./libraries/drivers/src/at32f413_tmr.c ****   *         this parameter can be one of the following values:
1531:./libraries/drivers/src/at32f413_tmr.c ****   *         - TMR_ES_FREQUENCY_DIV_1
1532:./libraries/drivers/src/at32f413_tmr.c ****   *         - TMR_ES_FREQUENCY_DIV_2
1533:./libraries/drivers/src/at32f413_tmr.c ****   *         - TMR_ES_FREQUENCY_DIV_4
1534:./libraries/drivers/src/at32f413_tmr.c ****   *         - TMR_ES_FREQUENCY_DIV_8
1535:./libraries/drivers/src/at32f413_tmr.c ****   * @param  es_polarity
