ARM GAS  C:\Users\J\AppData\Local\Temp\cco2cDAd.s 			page 1


   1              		.cpu cortex-m4
   2              		.eabi_attribute 27, 1
   3              		.eabi_attribute 28, 1
   4              		.eabi_attribute 20, 1
   5              		.eabi_attribute 21, 1
   6              		.eabi_attribute 23, 3
   7              		.eabi_attribute 24, 1
   8              		.eabi_attribute 25, 1
   9              		.eabi_attribute 26, 1
  10              		.eabi_attribute 30, 1
  11              		.eabi_attribute 34, 1
  12              		.eabi_attribute 18, 4
  13              		.file	"at32f413_adc.c"
  14              		.text
  15              	.Ltext0:
  16              		.cfi_sections	.debug_frame
  17              		.section	.text.adc_reset,"ax",%progbits
  18              		.align	1
  19              		.global	adc_reset
  20              		.arch armv7e-m
  21              		.syntax unified
  22              		.thumb
  23              		.thumb_func
  24              		.fpu fpv4-sp-d16
  26              	adc_reset:
  27              	.LVL0:
  28              	.LFB133:
  29              		.file 1 "./libraries/drivers/src/at32f413_adc.c"
   1:./libraries/drivers/src/at32f413_adc.c **** /**
   2:./libraries/drivers/src/at32f413_adc.c ****   **************************************************************************
   3:./libraries/drivers/src/at32f413_adc.c ****   * @file     at32f413_adc.c
   4:./libraries/drivers/src/at32f413_adc.c ****   * @version  v2.0.5
   5:./libraries/drivers/src/at32f413_adc.c ****   * @date     2022-05-20
   6:./libraries/drivers/src/at32f413_adc.c ****   * @brief    contains all the functions for the adc firmware library
   7:./libraries/drivers/src/at32f413_adc.c ****   **************************************************************************
   8:./libraries/drivers/src/at32f413_adc.c ****   *                       Copyright notice & Disclaimer
   9:./libraries/drivers/src/at32f413_adc.c ****   *
  10:./libraries/drivers/src/at32f413_adc.c ****   * The software Board Support Package (BSP) that is made available to
  11:./libraries/drivers/src/at32f413_adc.c ****   * download from Artery official website is the copyrighted work of Artery.
  12:./libraries/drivers/src/at32f413_adc.c ****   * Artery authorizes customers to use, copy, and distribute the BSP
  13:./libraries/drivers/src/at32f413_adc.c ****   * software and its related documentation for the purpose of design and
  14:./libraries/drivers/src/at32f413_adc.c ****   * development in conjunction with Artery microcontrollers. Use of the
  15:./libraries/drivers/src/at32f413_adc.c ****   * software is governed by this copyright notice and the following disclaimer.
  16:./libraries/drivers/src/at32f413_adc.c ****   *
  17:./libraries/drivers/src/at32f413_adc.c ****   * THIS SOFTWARE IS PROVIDED ON "AS IS" BASIS WITHOUT WARRANTIES,
  18:./libraries/drivers/src/at32f413_adc.c ****   * GUARANTEES OR REPRESENTATIONS OF ANY KIND. ARTERY EXPRESSLY DISCLAIMS,
  19:./libraries/drivers/src/at32f413_adc.c ****   * TO THE FULLEST EXTENT PERMITTED BY LAW, ALL EXPRESS, IMPLIED OR
  20:./libraries/drivers/src/at32f413_adc.c ****   * STATUTORY OR OTHER WARRANTIES, GUARANTEES OR REPRESENTATIONS,
  21:./libraries/drivers/src/at32f413_adc.c ****   * INCLUDING BUT NOT LIMITED TO, THE IMPLIED WARRANTIES OF MERCHANTABILITY,
  22:./libraries/drivers/src/at32f413_adc.c ****   * FITNESS FOR A PARTICULAR PURPOSE, OR NON-INFRINGEMENT.
  23:./libraries/drivers/src/at32f413_adc.c ****   *
  24:./libraries/drivers/src/at32f413_adc.c ****   **************************************************************************
  25:./libraries/drivers/src/at32f413_adc.c ****   */
  26:./libraries/drivers/src/at32f413_adc.c **** 
  27:./libraries/drivers/src/at32f413_adc.c **** #include "at32f413_conf.h"
  28:./libraries/drivers/src/at32f413_adc.c **** 
  29:./libraries/drivers/src/at32f413_adc.c **** /** @addtogroup AT32F413_periph_driver
ARM GAS  C:\Users\J\AppData\Local\Temp\cco2cDAd.s 			page 2


  30:./libraries/drivers/src/at32f413_adc.c ****   * @{
  31:./libraries/drivers/src/at32f413_adc.c ****   */
  32:./libraries/drivers/src/at32f413_adc.c **** 
  33:./libraries/drivers/src/at32f413_adc.c **** /** @defgroup ADC
  34:./libraries/drivers/src/at32f413_adc.c ****   * @brief ADC driver modules
  35:./libraries/drivers/src/at32f413_adc.c ****   * @{
  36:./libraries/drivers/src/at32f413_adc.c ****   */
  37:./libraries/drivers/src/at32f413_adc.c **** 
  38:./libraries/drivers/src/at32f413_adc.c **** #ifdef ADC_MODULE_ENABLED
  39:./libraries/drivers/src/at32f413_adc.c **** 
  40:./libraries/drivers/src/at32f413_adc.c **** /** @defgroup ADC_private_functions
  41:./libraries/drivers/src/at32f413_adc.c ****   * @{
  42:./libraries/drivers/src/at32f413_adc.c ****   */
  43:./libraries/drivers/src/at32f413_adc.c **** 
  44:./libraries/drivers/src/at32f413_adc.c **** /**
  45:./libraries/drivers/src/at32f413_adc.c ****   * @brief  deinitialize the adc peripheral registers to their default reset values.
  46:./libraries/drivers/src/at32f413_adc.c ****   * @param  adc_x: select the adc peripheral.
  47:./libraries/drivers/src/at32f413_adc.c ****   *         this parameter can be one of the following values:
  48:./libraries/drivers/src/at32f413_adc.c ****   *         ADC1, ADC2.
  49:./libraries/drivers/src/at32f413_adc.c ****   * @retval none
  50:./libraries/drivers/src/at32f413_adc.c ****   */
  51:./libraries/drivers/src/at32f413_adc.c **** void adc_reset(adc_type *adc_x)
  52:./libraries/drivers/src/at32f413_adc.c **** {
  30              		.loc 1 52 1 view -0
  31              		.cfi_startproc
  32              		@ args = 0, pretend = 0, frame = 0
  33              		@ frame_needed = 0, uses_anonymous_args = 0
  34              		.loc 1 52 1 is_stmt 0 view .LVU1
  35 0000 10B5     		push	{r4, lr}
  36              	.LCFI0:
  37              		.cfi_def_cfa_offset 8
  38              		.cfi_offset 4, -8
  39              		.cfi_offset 14, -4
  53:./libraries/drivers/src/at32f413_adc.c ****   if(adc_x == ADC1)
  40              		.loc 1 53 3 is_stmt 1 view .LVU2
  41              		.loc 1 53 5 is_stmt 0 view .LVU3
  42 0002 0D4B     		ldr	r3, .L7
  43 0004 9842     		cmp	r0, r3
  44 0006 03D0     		beq	.L5
  54:./libraries/drivers/src/at32f413_adc.c ****   {
  55:./libraries/drivers/src/at32f413_adc.c ****     crm_periph_reset(CRM_ADC1_PERIPH_RESET, TRUE);
  56:./libraries/drivers/src/at32f413_adc.c ****     crm_periph_reset(CRM_ADC1_PERIPH_RESET, FALSE);
  57:./libraries/drivers/src/at32f413_adc.c ****   }
  58:./libraries/drivers/src/at32f413_adc.c ****   else if(adc_x == ADC2)
  45              		.loc 1 58 8 is_stmt 1 view .LVU4
  46              		.loc 1 58 10 is_stmt 0 view .LVU5
  47 0008 0C4B     		ldr	r3, .L7+4
  48 000a 9842     		cmp	r0, r3
  49 000c 0AD0     		beq	.L6
  50              	.LVL1:
  51              	.L1:
  59:./libraries/drivers/src/at32f413_adc.c ****   {
  60:./libraries/drivers/src/at32f413_adc.c ****     crm_periph_reset(CRM_ADC2_PERIPH_RESET, TRUE);
  61:./libraries/drivers/src/at32f413_adc.c ****     crm_periph_reset(CRM_ADC2_PERIPH_RESET, FALSE);
  62:./libraries/drivers/src/at32f413_adc.c ****   }
  63:./libraries/drivers/src/at32f413_adc.c **** }
  52              		.loc 1 63 1 view .LVU6
ARM GAS  C:\Users\J\AppData\Local\Temp\cco2cDAd.s 			page 3


  53 000e 10BD     		pop	{r4, pc}
  54              	.LVL2:
  55              	.L5:
  55:./libraries/drivers/src/at32f413_adc.c ****     crm_periph_reset(CRM_ADC1_PERIPH_RESET, FALSE);
  56              		.loc 1 55 5 is_stmt 1 view .LVU7
  57 0010 0B4C     		ldr	r4, .L7+8
  58 0012 0121     		movs	r1, #1
  59 0014 2046     		mov	r0, r4
  60              	.LVL3:
  55:./libraries/drivers/src/at32f413_adc.c ****     crm_periph_reset(CRM_ADC1_PERIPH_RESET, FALSE);
  61              		.loc 1 55 5 is_stmt 0 view .LVU8
  62 0016 FFF7FEFF 		bl	crm_periph_reset
  63              	.LVL4:
  56:./libraries/drivers/src/at32f413_adc.c ****   }
  64              		.loc 1 56 5 is_stmt 1 view .LVU9
  65 001a 0021     		movs	r1, #0
  66 001c 2046     		mov	r0, r4
  67 001e FFF7FEFF 		bl	crm_periph_reset
  68              	.LVL5:
  69 0022 F4E7     		b	.L1
  70              	.LVL6:
  71              	.L6:
  60:./libraries/drivers/src/at32f413_adc.c ****     crm_periph_reset(CRM_ADC2_PERIPH_RESET, FALSE);
  72              		.loc 1 60 5 view .LVU10
  73 0024 074C     		ldr	r4, .L7+12
  74 0026 0121     		movs	r1, #1
  75 0028 2046     		mov	r0, r4
  76              	.LVL7:
  60:./libraries/drivers/src/at32f413_adc.c ****     crm_periph_reset(CRM_ADC2_PERIPH_RESET, FALSE);
  77              		.loc 1 60 5 is_stmt 0 view .LVU11
  78 002a FFF7FEFF 		bl	crm_periph_reset
  79              	.LVL8:
  61:./libraries/drivers/src/at32f413_adc.c ****   }
  80              		.loc 1 61 5 is_stmt 1 view .LVU12
  81 002e 0021     		movs	r1, #0
  82 0030 2046     		mov	r0, r4
  83 0032 FFF7FEFF 		bl	crm_periph_reset
  84              	.LVL9:
  85              		.loc 1 63 1 is_stmt 0 view .LVU13
  86 0036 EAE7     		b	.L1
  87              	.L8:
  88              		.align	2
  89              	.L7:
  90 0038 00240140 		.word	1073816576
  91 003c 00280140 		.word	1073817600
  92 0040 09000C00 		.word	786441
  93 0044 0A000C00 		.word	786442
  94              		.cfi_endproc
  95              	.LFE133:
  97              		.section	.text.adc_enable,"ax",%progbits
  98              		.align	1
  99              		.global	adc_enable
 100              		.syntax unified
 101              		.thumb
 102              		.thumb_func
 103              		.fpu fpv4-sp-d16
 105              	adc_enable:
ARM GAS  C:\Users\J\AppData\Local\Temp\cco2cDAd.s 			page 4


 106              	.LVL10:
 107              	.LFB134:
  64:./libraries/drivers/src/at32f413_adc.c **** 
  65:./libraries/drivers/src/at32f413_adc.c **** /**
  66:./libraries/drivers/src/at32f413_adc.c ****   * @brief  enable or disable the specified adc peripheral.
  67:./libraries/drivers/src/at32f413_adc.c ****   * @param  adc_x: select the adc peripheral.
  68:./libraries/drivers/src/at32f413_adc.c ****   *         this parameter can be one of the following values:
  69:./libraries/drivers/src/at32f413_adc.c ****   *         ADC1, ADC2.
  70:./libraries/drivers/src/at32f413_adc.c ****   * @param  new_state: new state of a/d converter.
  71:./libraries/drivers/src/at32f413_adc.c ****   *         this parameter can be: TRUE or FALSE.
  72:./libraries/drivers/src/at32f413_adc.c ****   *         note:after adc ready,user set adcen bit will cause ordinary conversion
  73:./libraries/drivers/src/at32f413_adc.c ****   * @retval none
  74:./libraries/drivers/src/at32f413_adc.c ****   */
  75:./libraries/drivers/src/at32f413_adc.c **** void adc_enable(adc_type *adc_x, confirm_state new_state)
  76:./libraries/drivers/src/at32f413_adc.c **** {
 108              		.loc 1 76 1 is_stmt 1 view -0
 109              		.cfi_startproc
 110              		@ args = 0, pretend = 0, frame = 0
 111              		@ frame_needed = 0, uses_anonymous_args = 0
 112              		@ link register save eliminated.
  77:./libraries/drivers/src/at32f413_adc.c ****   adc_x->ctrl2_bit.adcen = new_state;
 113              		.loc 1 77 3 view .LVU15
 114              		.loc 1 77 26 is_stmt 0 view .LVU16
 115 0000 8368     		ldr	r3, [r0, #8]
 116 0002 61F30003 		bfi	r3, r1, #0, #1
 117 0006 8360     		str	r3, [r0, #8]
  78:./libraries/drivers/src/at32f413_adc.c **** }
 118              		.loc 1 78 1 view .LVU17
 119 0008 7047     		bx	lr
 120              		.cfi_endproc
 121              	.LFE134:
 123              		.section	.text.adc_combine_mode_select,"ax",%progbits
 124              		.align	1
 125              		.global	adc_combine_mode_select
 126              		.syntax unified
 127              		.thumb
 128              		.thumb_func
 129              		.fpu fpv4-sp-d16
 131              	adc_combine_mode_select:
 132              	.LVL11:
 133              	.LFB135:
  79:./libraries/drivers/src/at32f413_adc.c **** 
  80:./libraries/drivers/src/at32f413_adc.c **** /**
  81:./libraries/drivers/src/at32f413_adc.c ****   * @brief  select combine mode of the specified adc peripheral.
  82:./libraries/drivers/src/at32f413_adc.c ****   * @param  combine_mode: select the adc combine mode.
  83:./libraries/drivers/src/at32f413_adc.c ****   *         this parameter can be one of the following values:
  84:./libraries/drivers/src/at32f413_adc.c ****   *         - ADC_INDEPENDENT_MODE
  85:./libraries/drivers/src/at32f413_adc.c ****   *         - ADC_ORDINARY_SMLT_PREEMPT_SMLT_MODE
  86:./libraries/drivers/src/at32f413_adc.c ****   *         - ADC_ORDINARY_SMLT_PREEMPT_INTERLTRIG_MODE
  87:./libraries/drivers/src/at32f413_adc.c ****   *         - ADC_ORDINARY_SHORTSHIFT_PREEMPT_SMLT_MODE
  88:./libraries/drivers/src/at32f413_adc.c ****   *         - ADC_ORDINARY_LONGSHIFT_PREEMPT_SMLT_MODE
  89:./libraries/drivers/src/at32f413_adc.c ****   *         - ADC_PREEMPT_SMLT_ONLY_MODE
  90:./libraries/drivers/src/at32f413_adc.c ****   *         - ADC_ORDINARY_SMLT_ONLY_MODE
  91:./libraries/drivers/src/at32f413_adc.c ****   *         - ADC_ORDINARY_SHORTSHIFT_ONLY_MODE
  92:./libraries/drivers/src/at32f413_adc.c ****   *         - ADC_ORDINARY_LONGSHIFT_ONLY_MODE
  93:./libraries/drivers/src/at32f413_adc.c ****   *         - ADC_PREEMPT_INTERLTRIG_ONLY_MODE
  94:./libraries/drivers/src/at32f413_adc.c ****   *         note:these bits are reserved in adc2
ARM GAS  C:\Users\J\AppData\Local\Temp\cco2cDAd.s 			page 5


  95:./libraries/drivers/src/at32f413_adc.c ****   * @retval none
  96:./libraries/drivers/src/at32f413_adc.c ****   */
  97:./libraries/drivers/src/at32f413_adc.c **** void adc_combine_mode_select(adc_combine_mode_type combine_mode)
  98:./libraries/drivers/src/at32f413_adc.c **** {
 134              		.loc 1 98 1 is_stmt 1 view -0
 135              		.cfi_startproc
 136              		@ args = 0, pretend = 0, frame = 0
 137              		@ frame_needed = 0, uses_anonymous_args = 0
 138              		@ link register save eliminated.
  99:./libraries/drivers/src/at32f413_adc.c ****     ADC1->ctrl1_bit.mssel = combine_mode;
 139              		.loc 1 99 5 view .LVU19
 140              		.loc 1 99 27 is_stmt 0 view .LVU20
 141 0000 024B     		ldr	r3, .L11
 142 0002 5A68     		ldr	r2, [r3, #4]
 143 0004 60F31342 		bfi	r2, r0, #16, #4
 144 0008 5A60     		str	r2, [r3, #4]
 100:./libraries/drivers/src/at32f413_adc.c **** }
 145              		.loc 1 100 1 view .LVU21
 146 000a 7047     		bx	lr
 147              	.L12:
 148              		.align	2
 149              	.L11:
 150 000c 00240140 		.word	1073816576
 151              		.cfi_endproc
 152              	.LFE135:
 154              		.section	.text.adc_base_default_para_init,"ax",%progbits
 155              		.align	1
 156              		.global	adc_base_default_para_init
 157              		.syntax unified
 158              		.thumb
 159              		.thumb_func
 160              		.fpu fpv4-sp-d16
 162              	adc_base_default_para_init:
 163              	.LVL12:
 164              	.LFB136:
 101:./libraries/drivers/src/at32f413_adc.c **** 
 102:./libraries/drivers/src/at32f413_adc.c **** /**
 103:./libraries/drivers/src/at32f413_adc.c ****   * @brief  adc base default para init.
 104:./libraries/drivers/src/at32f413_adc.c ****   * @param  sequence_mode: set the state of adc sequence mode.
 105:./libraries/drivers/src/at32f413_adc.c ****   *         this parameter can be:TRUE or FALSE
 106:./libraries/drivers/src/at32f413_adc.c ****   * @param  repeat_mode: set the state of adc repeat conversion mode.
 107:./libraries/drivers/src/at32f413_adc.c ****   *         this parameter can be:TRUE or FALSE
 108:./libraries/drivers/src/at32f413_adc.c ****   * @param  data_align: set the state of adc data alignment.
 109:./libraries/drivers/src/at32f413_adc.c ****   *         this parameter can be one of the following values:
 110:./libraries/drivers/src/at32f413_adc.c ****   *         - ADC_RIGHT_ALIGNMENT
 111:./libraries/drivers/src/at32f413_adc.c ****   *         - ADC_LEFT_ALIGNMENT
 112:./libraries/drivers/src/at32f413_adc.c ****   * @param  ordinary_channel_length: configure the adc ordinary channel sequence length.
 113:./libraries/drivers/src/at32f413_adc.c ****   *         this parameter can be:
 114:./libraries/drivers/src/at32f413_adc.c ****   *         - (0x1~0xf)
 115:./libraries/drivers/src/at32f413_adc.c ****   * @retval none
 116:./libraries/drivers/src/at32f413_adc.c ****   */
 117:./libraries/drivers/src/at32f413_adc.c **** void adc_base_default_para_init(adc_base_config_type *adc_base_struct)
 118:./libraries/drivers/src/at32f413_adc.c **** {
 165              		.loc 1 118 1 is_stmt 1 view -0
 166              		.cfi_startproc
 167              		@ args = 0, pretend = 0, frame = 0
 168              		@ frame_needed = 0, uses_anonymous_args = 0
ARM GAS  C:\Users\J\AppData\Local\Temp\cco2cDAd.s 			page 6


 169              		@ link register save eliminated.
 119:./libraries/drivers/src/at32f413_adc.c ****   adc_base_struct->sequence_mode = FALSE;
 170              		.loc 1 119 3 view .LVU23
 171              		.loc 1 119 34 is_stmt 0 view .LVU24
 172 0000 0023     		movs	r3, #0
 173 0002 0370     		strb	r3, [r0]
 120:./libraries/drivers/src/at32f413_adc.c ****   adc_base_struct->repeat_mode = FALSE;
 174              		.loc 1 120 3 is_stmt 1 view .LVU25
 175              		.loc 1 120 32 is_stmt 0 view .LVU26
 176 0004 4370     		strb	r3, [r0, #1]
 121:./libraries/drivers/src/at32f413_adc.c ****   adc_base_struct->data_align = ADC_RIGHT_ALIGNMENT;
 177              		.loc 1 121 3 is_stmt 1 view .LVU27
 178              		.loc 1 121 31 is_stmt 0 view .LVU28
 179 0006 8370     		strb	r3, [r0, #2]
 122:./libraries/drivers/src/at32f413_adc.c ****   adc_base_struct->ordinary_channel_length = 1;
 180              		.loc 1 122 3 is_stmt 1 view .LVU29
 181              		.loc 1 122 44 is_stmt 0 view .LVU30
 182 0008 0123     		movs	r3, #1
 183 000a C370     		strb	r3, [r0, #3]
 123:./libraries/drivers/src/at32f413_adc.c **** }
 184              		.loc 1 123 1 view .LVU31
 185 000c 7047     		bx	lr
 186              		.cfi_endproc
 187              	.LFE136:
 189              		.section	.text.adc_base_config,"ax",%progbits
 190              		.align	1
 191              		.global	adc_base_config
 192              		.syntax unified
 193              		.thumb
 194              		.thumb_func
 195              		.fpu fpv4-sp-d16
 197              	adc_base_config:
 198              	.LVL13:
 199              	.LFB137:
 124:./libraries/drivers/src/at32f413_adc.c **** 
 125:./libraries/drivers/src/at32f413_adc.c **** /**
 126:./libraries/drivers/src/at32f413_adc.c ****   * @brief  initialize the adc peripheral according to the specified parameters.
 127:./libraries/drivers/src/at32f413_adc.c ****   * @param  adc_x: select the adc peripheral.
 128:./libraries/drivers/src/at32f413_adc.c ****   *         this parameter can be one of the following values:
 129:./libraries/drivers/src/at32f413_adc.c ****   *         ADC1, ADC2.
 130:./libraries/drivers/src/at32f413_adc.c ****   * @param  sequence_mode: set the state of adc sequence mode.
 131:./libraries/drivers/src/at32f413_adc.c ****   *         this parameter can be:TRUE or FALSE
 132:./libraries/drivers/src/at32f413_adc.c ****   * @param  repeat_mode: set the state of adc repeat conversion mode.
 133:./libraries/drivers/src/at32f413_adc.c ****   *         this parameter can be:TRUE or FALSE
 134:./libraries/drivers/src/at32f413_adc.c ****   * @param  data_align: set the state of adc data alignment.
 135:./libraries/drivers/src/at32f413_adc.c ****   *         this parameter can be one of the following values:
 136:./libraries/drivers/src/at32f413_adc.c ****   *         - ADC_RIGHT_ALIGNMENT
 137:./libraries/drivers/src/at32f413_adc.c ****   *         - ADC_LEFT_ALIGNMENT
 138:./libraries/drivers/src/at32f413_adc.c ****   * @param  ordinary_channel_length: configure the adc ordinary channel sequence length.
 139:./libraries/drivers/src/at32f413_adc.c ****   *         this parameter can be:
 140:./libraries/drivers/src/at32f413_adc.c ****   *         - (0x1~0xf)
 141:./libraries/drivers/src/at32f413_adc.c ****   * @retval none
 142:./libraries/drivers/src/at32f413_adc.c ****   */
 143:./libraries/drivers/src/at32f413_adc.c **** void adc_base_config(adc_type *adc_x, adc_base_config_type *adc_base_struct)
 144:./libraries/drivers/src/at32f413_adc.c **** {
 200              		.loc 1 144 1 is_stmt 1 view -0
 201              		.cfi_startproc
ARM GAS  C:\Users\J\AppData\Local\Temp\cco2cDAd.s 			page 7


 202              		@ args = 0, pretend = 0, frame = 0
 203              		@ frame_needed = 0, uses_anonymous_args = 0
 204              		@ link register save eliminated.
 145:./libraries/drivers/src/at32f413_adc.c ****   adc_x->ctrl1_bit.sqen = adc_base_struct->sequence_mode;
 205              		.loc 1 145 3 view .LVU33
 206              		.loc 1 145 42 is_stmt 0 view .LVU34
 207 0000 0A78     		ldrb	r2, [r1]	@ zero_extendqisi2
 208              		.loc 1 145 25 view .LVU35
 209 0002 4368     		ldr	r3, [r0, #4]
 210 0004 62F30823 		bfi	r3, r2, #8, #1
 211 0008 4360     		str	r3, [r0, #4]
 146:./libraries/drivers/src/at32f413_adc.c ****   adc_x->ctrl2_bit.rpen = adc_base_struct->repeat_mode;
 212              		.loc 1 146 3 is_stmt 1 view .LVU36
 213              		.loc 1 146 42 is_stmt 0 view .LVU37
 214 000a 4A78     		ldrb	r2, [r1, #1]	@ zero_extendqisi2
 215              		.loc 1 146 25 view .LVU38
 216 000c 8368     		ldr	r3, [r0, #8]
 217 000e 62F34103 		bfi	r3, r2, #1, #1
 218 0012 8360     		str	r3, [r0, #8]
 147:./libraries/drivers/src/at32f413_adc.c ****   adc_x->ctrl2_bit.dtalign = adc_base_struct->data_align;
 219              		.loc 1 147 3 is_stmt 1 view .LVU39
 220              		.loc 1 147 45 is_stmt 0 view .LVU40
 221 0014 8A78     		ldrb	r2, [r1, #2]	@ zero_extendqisi2
 222              		.loc 1 147 28 view .LVU41
 223 0016 8368     		ldr	r3, [r0, #8]
 224 0018 62F3CB23 		bfi	r3, r2, #11, #1
 225 001c 8360     		str	r3, [r0, #8]
 148:./libraries/drivers/src/at32f413_adc.c ****   adc_x->osq1_bit.oclen = adc_base_struct->ordinary_channel_length - 1;
 226              		.loc 1 148 3 is_stmt 1 view .LVU42
 227              		.loc 1 148 42 is_stmt 0 view .LVU43
 228 001e CB78     		ldrb	r3, [r1, #3]	@ zero_extendqisi2
 229              		.loc 1 148 68 view .LVU44
 230 0020 013B     		subs	r3, r3, #1
 231              		.loc 1 148 25 view .LVU45
 232 0022 C26A     		ldr	r2, [r0, #44]
 233 0024 63F31752 		bfi	r2, r3, #20, #4
 234 0028 C262     		str	r2, [r0, #44]
 149:./libraries/drivers/src/at32f413_adc.c **** }
 235              		.loc 1 149 1 view .LVU46
 236 002a 7047     		bx	lr
 237              		.cfi_endproc
 238              	.LFE137:
 240              		.section	.text.adc_dma_mode_enable,"ax",%progbits
 241              		.align	1
 242              		.global	adc_dma_mode_enable
 243              		.syntax unified
 244              		.thumb
 245              		.thumb_func
 246              		.fpu fpv4-sp-d16
 248              	adc_dma_mode_enable:
 249              	.LVL14:
 250              	.LFB138:
 150:./libraries/drivers/src/at32f413_adc.c **** 
 151:./libraries/drivers/src/at32f413_adc.c **** /**
 152:./libraries/drivers/src/at32f413_adc.c ****   * @brief  enable or disable the adc dma transfer.
 153:./libraries/drivers/src/at32f413_adc.c ****   * @param  adc_x: select the adc peripheral.
 154:./libraries/drivers/src/at32f413_adc.c ****   *         this parameter can be one of the following values:
ARM GAS  C:\Users\J\AppData\Local\Temp\cco2cDAd.s 			page 8


 155:./libraries/drivers/src/at32f413_adc.c ****   *         ADC1.
 156:./libraries/drivers/src/at32f413_adc.c ****   *         note:this bit is reserved in adc2
 157:./libraries/drivers/src/at32f413_adc.c ****   * @param  new_state: new state of the adc dma transfer.
 158:./libraries/drivers/src/at32f413_adc.c ****   *         this parameter can be: TRUE or FALSE.
 159:./libraries/drivers/src/at32f413_adc.c ****   * @retval none
 160:./libraries/drivers/src/at32f413_adc.c ****   */
 161:./libraries/drivers/src/at32f413_adc.c **** void adc_dma_mode_enable(adc_type *adc_x, confirm_state new_state)
 162:./libraries/drivers/src/at32f413_adc.c **** {
 251              		.loc 1 162 1 is_stmt 1 view -0
 252              		.cfi_startproc
 253              		@ args = 0, pretend = 0, frame = 0
 254              		@ frame_needed = 0, uses_anonymous_args = 0
 255              		@ link register save eliminated.
 163:./libraries/drivers/src/at32f413_adc.c ****   adc_x->ctrl2_bit.ocdmaen = new_state;
 256              		.loc 1 163 3 view .LVU48
 257              		.loc 1 163 28 is_stmt 0 view .LVU49
 258 0000 8368     		ldr	r3, [r0, #8]
 259 0002 61F30823 		bfi	r3, r1, #8, #1
 260 0006 8360     		str	r3, [r0, #8]
 164:./libraries/drivers/src/at32f413_adc.c **** }
 261              		.loc 1 164 1 view .LVU50
 262 0008 7047     		bx	lr
 263              		.cfi_endproc
 264              	.LFE138:
 266              		.section	.text.adc_interrupt_enable,"ax",%progbits
 267              		.align	1
 268              		.global	adc_interrupt_enable
 269              		.syntax unified
 270              		.thumb
 271              		.thumb_func
 272              		.fpu fpv4-sp-d16
 274              	adc_interrupt_enable:
 275              	.LVL15:
 276              	.LFB139:
 165:./libraries/drivers/src/at32f413_adc.c **** 
 166:./libraries/drivers/src/at32f413_adc.c **** /**
 167:./libraries/drivers/src/at32f413_adc.c ****   * @brief  enable or disable the specified adc interrupts.
 168:./libraries/drivers/src/at32f413_adc.c ****   * @param  adc_x: select the adc peripheral.
 169:./libraries/drivers/src/at32f413_adc.c ****   *         this parameter can be one of the following values:
 170:./libraries/drivers/src/at32f413_adc.c ****   *         ADC1, ADC2.
 171:./libraries/drivers/src/at32f413_adc.c ****   * @param  adc_int: specifies the adc interrupt sources to be enabled or disabled.
 172:./libraries/drivers/src/at32f413_adc.c ****   *         this parameter can be one of the following values:
 173:./libraries/drivers/src/at32f413_adc.c ****   *         - ADC_VMOR_INT
 174:./libraries/drivers/src/at32f413_adc.c ****   *         - ADC_CCE_INT
 175:./libraries/drivers/src/at32f413_adc.c ****   *         - ADC_PCCE_INT
 176:./libraries/drivers/src/at32f413_adc.c ****   * @param  new_state: new state of the specified adc interrupts.
 177:./libraries/drivers/src/at32f413_adc.c ****   *         this parameter can be: TRUE or FALSE.
 178:./libraries/drivers/src/at32f413_adc.c ****   * @retval none
 179:./libraries/drivers/src/at32f413_adc.c ****   */
 180:./libraries/drivers/src/at32f413_adc.c **** void adc_interrupt_enable(adc_type *adc_x, uint32_t adc_int, confirm_state new_state)
 181:./libraries/drivers/src/at32f413_adc.c **** {
 277              		.loc 1 181 1 is_stmt 1 view -0
 278              		.cfi_startproc
 279              		@ args = 0, pretend = 0, frame = 0
 280              		@ frame_needed = 0, uses_anonymous_args = 0
 281              		@ link register save eliminated.
 182:./libraries/drivers/src/at32f413_adc.c ****   if(new_state == TRUE)
ARM GAS  C:\Users\J\AppData\Local\Temp\cco2cDAd.s 			page 9


 282              		.loc 1 182 3 view .LVU52
 283              		.loc 1 182 5 is_stmt 0 view .LVU53
 284 0000 012A     		cmp	r2, #1
 285 0002 05D0     		beq	.L19
 183:./libraries/drivers/src/at32f413_adc.c ****   {
 184:./libraries/drivers/src/at32f413_adc.c ****     adc_x->ctrl1 |= adc_int;
 185:./libraries/drivers/src/at32f413_adc.c ****   }
 186:./libraries/drivers/src/at32f413_adc.c ****   else if(new_state == FALSE)
 286              		.loc 1 186 8 is_stmt 1 view .LVU54
 287              		.loc 1 186 10 is_stmt 0 view .LVU55
 288 0004 1AB9     		cbnz	r2, .L16
 187:./libraries/drivers/src/at32f413_adc.c ****   {
 188:./libraries/drivers/src/at32f413_adc.c ****     adc_x->ctrl1 &= ~adc_int;
 289              		.loc 1 188 5 is_stmt 1 view .LVU56
 290              		.loc 1 188 18 is_stmt 0 view .LVU57
 291 0006 4368     		ldr	r3, [r0, #4]
 292 0008 23EA0101 		bic	r1, r3, r1
 293              	.LVL16:
 294              		.loc 1 188 18 view .LVU58
 295 000c 4160     		str	r1, [r0, #4]
 296              	.L16:
 189:./libraries/drivers/src/at32f413_adc.c ****   }
 190:./libraries/drivers/src/at32f413_adc.c **** }
 297              		.loc 1 190 1 view .LVU59
 298 000e 7047     		bx	lr
 299              	.LVL17:
 300              	.L19:
 184:./libraries/drivers/src/at32f413_adc.c ****   }
 301              		.loc 1 184 5 is_stmt 1 view .LVU60
 184:./libraries/drivers/src/at32f413_adc.c ****   }
 302              		.loc 1 184 18 is_stmt 0 view .LVU61
 303 0010 4368     		ldr	r3, [r0, #4]
 304 0012 1943     		orrs	r1, r1, r3
 305              	.LVL18:
 184:./libraries/drivers/src/at32f413_adc.c ****   }
 306              		.loc 1 184 18 view .LVU62
 307 0014 4160     		str	r1, [r0, #4]
 308 0016 7047     		bx	lr
 309              		.cfi_endproc
 310              	.LFE139:
 312              		.section	.text.adc_calibration_init,"ax",%progbits
 313              		.align	1
 314              		.global	adc_calibration_init
 315              		.syntax unified
 316              		.thumb
 317              		.thumb_func
 318              		.fpu fpv4-sp-d16
 320              	adc_calibration_init:
 321              	.LVL19:
 322              	.LFB140:
 191:./libraries/drivers/src/at32f413_adc.c **** 
 192:./libraries/drivers/src/at32f413_adc.c **** /**
 193:./libraries/drivers/src/at32f413_adc.c ****   * @brief  initialize calibration register of the specified adc peripheral.
 194:./libraries/drivers/src/at32f413_adc.c ****   * @param  adc_x: select the adc peripheral.
 195:./libraries/drivers/src/at32f413_adc.c ****   *         this parameter can be one of the following values:
 196:./libraries/drivers/src/at32f413_adc.c ****   *         ADC1, ADC2.
 197:./libraries/drivers/src/at32f413_adc.c ****   * @retval none
ARM GAS  C:\Users\J\AppData\Local\Temp\cco2cDAd.s 			page 10


 198:./libraries/drivers/src/at32f413_adc.c ****   */
 199:./libraries/drivers/src/at32f413_adc.c **** void adc_calibration_init(adc_type *adc_x)
 200:./libraries/drivers/src/at32f413_adc.c **** {
 323              		.loc 1 200 1 is_stmt 1 view -0
 324              		.cfi_startproc
 325              		@ args = 0, pretend = 0, frame = 0
 326              		@ frame_needed = 0, uses_anonymous_args = 0
 327              		@ link register save eliminated.
 201:./libraries/drivers/src/at32f413_adc.c ****   adc_x->ctrl2_bit.adcalinit = TRUE;
 328              		.loc 1 201 3 view .LVU64
 329              		.loc 1 201 30 is_stmt 0 view .LVU65
 330 0000 8368     		ldr	r3, [r0, #8]
 331 0002 43F00803 		orr	r3, r3, #8
 332 0006 8360     		str	r3, [r0, #8]
 202:./libraries/drivers/src/at32f413_adc.c **** }
 333              		.loc 1 202 1 view .LVU66
 334 0008 7047     		bx	lr
 335              		.cfi_endproc
 336              	.LFE140:
 338              		.section	.text.adc_calibration_init_status_get,"ax",%progbits
 339              		.align	1
 340              		.global	adc_calibration_init_status_get
 341              		.syntax unified
 342              		.thumb
 343              		.thumb_func
 344              		.fpu fpv4-sp-d16
 346              	adc_calibration_init_status_get:
 347              	.LVL20:
 348              	.LFB141:
 203:./libraries/drivers/src/at32f413_adc.c **** 
 204:./libraries/drivers/src/at32f413_adc.c **** /**
 205:./libraries/drivers/src/at32f413_adc.c ****   * @brief  get calibration register's initialize status of the specified adc peripheral.
 206:./libraries/drivers/src/at32f413_adc.c ****   * @param  adc_x: select the adc peripheral.
 207:./libraries/drivers/src/at32f413_adc.c ****   *         this parameter can be one of the following values:
 208:./libraries/drivers/src/at32f413_adc.c ****   *         ADC1, ADC2.
 209:./libraries/drivers/src/at32f413_adc.c ****   * @retval the new state of reset calibration register status(SET or RESET).
 210:./libraries/drivers/src/at32f413_adc.c ****   */
 211:./libraries/drivers/src/at32f413_adc.c **** flag_status adc_calibration_init_status_get(adc_type *adc_x)
 212:./libraries/drivers/src/at32f413_adc.c **** {
 349              		.loc 1 212 1 is_stmt 1 view -0
 350              		.cfi_startproc
 351              		@ args = 0, pretend = 0, frame = 0
 352              		@ frame_needed = 0, uses_anonymous_args = 0
 353              		@ link register save eliminated.
 213:./libraries/drivers/src/at32f413_adc.c ****   if(adc_x->ctrl2_bit.adcalinit)
 354              		.loc 1 213 3 view .LVU68
 355              		.loc 1 213 22 is_stmt 0 view .LVU69
 356 0000 8368     		ldr	r3, [r0, #8]
 357              		.loc 1 213 5 view .LVU70
 358 0002 13F0080F 		tst	r3, #8
 359 0006 01D0     		beq	.L23
 214:./libraries/drivers/src/at32f413_adc.c ****   {
 215:./libraries/drivers/src/at32f413_adc.c ****     return SET;
 360              		.loc 1 215 12 view .LVU71
 361 0008 0120     		movs	r0, #1
 362              	.LVL21:
 363              		.loc 1 215 12 view .LVU72
ARM GAS  C:\Users\J\AppData\Local\Temp\cco2cDAd.s 			page 11


 364 000a 7047     		bx	lr
 365              	.LVL22:
 366              	.L23:
 216:./libraries/drivers/src/at32f413_adc.c ****   }
 217:./libraries/drivers/src/at32f413_adc.c ****   else
 218:./libraries/drivers/src/at32f413_adc.c ****   {
 219:./libraries/drivers/src/at32f413_adc.c ****     return RESET;
 367              		.loc 1 219 12 view .LVU73
 368 000c 0020     		movs	r0, #0
 369              	.LVL23:
 220:./libraries/drivers/src/at32f413_adc.c ****   }
 221:./libraries/drivers/src/at32f413_adc.c **** }
 370              		.loc 1 221 1 view .LVU74
 371 000e 7047     		bx	lr
 372              		.cfi_endproc
 373              	.LFE141:
 375              		.section	.text.adc_calibration_start,"ax",%progbits
 376              		.align	1
 377              		.global	adc_calibration_start
 378              		.syntax unified
 379              		.thumb
 380              		.thumb_func
 381              		.fpu fpv4-sp-d16
 383              	adc_calibration_start:
 384              	.LVL24:
 385              	.LFB142:
 222:./libraries/drivers/src/at32f413_adc.c **** 
 223:./libraries/drivers/src/at32f413_adc.c **** /**
 224:./libraries/drivers/src/at32f413_adc.c ****   * @brief  start calibration process of the specified adc peripheral.
 225:./libraries/drivers/src/at32f413_adc.c ****   * @param  adc_x: select the adc peripheral.
 226:./libraries/drivers/src/at32f413_adc.c ****   *         this parameter can be one of the following values:
 227:./libraries/drivers/src/at32f413_adc.c ****   *         ADC1, ADC2.
 228:./libraries/drivers/src/at32f413_adc.c ****   * @retval none
 229:./libraries/drivers/src/at32f413_adc.c ****   */
 230:./libraries/drivers/src/at32f413_adc.c **** void adc_calibration_start(adc_type *adc_x)
 231:./libraries/drivers/src/at32f413_adc.c **** {
 386              		.loc 1 231 1 is_stmt 1 view -0
 387              		.cfi_startproc
 388              		@ args = 0, pretend = 0, frame = 0
 389              		@ frame_needed = 0, uses_anonymous_args = 0
 390              		@ link register save eliminated.
 232:./libraries/drivers/src/at32f413_adc.c ****   adc_x->ctrl2_bit.adcal = TRUE;
 391              		.loc 1 232 3 view .LVU76
 392              		.loc 1 232 26 is_stmt 0 view .LVU77
 393 0000 8368     		ldr	r3, [r0, #8]
 394 0002 43F00403 		orr	r3, r3, #4
 395 0006 8360     		str	r3, [r0, #8]
 233:./libraries/drivers/src/at32f413_adc.c **** }
 396              		.loc 1 233 1 view .LVU78
 397 0008 7047     		bx	lr
 398              		.cfi_endproc
 399              	.LFE142:
 401              		.section	.text.adc_calibration_status_get,"ax",%progbits
 402              		.align	1
 403              		.global	adc_calibration_status_get
 404              		.syntax unified
 405              		.thumb
ARM GAS  C:\Users\J\AppData\Local\Temp\cco2cDAd.s 			page 12


 406              		.thumb_func
 407              		.fpu fpv4-sp-d16
 409              	adc_calibration_status_get:
 410              	.LVL25:
 411              	.LFB143:
 234:./libraries/drivers/src/at32f413_adc.c **** 
 235:./libraries/drivers/src/at32f413_adc.c **** /**
 236:./libraries/drivers/src/at32f413_adc.c ****   * @brief  get calibration status of the specified adc peripheral.
 237:./libraries/drivers/src/at32f413_adc.c ****   * @param  adc_x: select the adc peripheral.
 238:./libraries/drivers/src/at32f413_adc.c ****   *         this parameter can be one of the following values:
 239:./libraries/drivers/src/at32f413_adc.c ****   *         ADC1, ADC2.
 240:./libraries/drivers/src/at32f413_adc.c ****   * @retval the new state of calibration status(SET or RESET).
 241:./libraries/drivers/src/at32f413_adc.c ****   */
 242:./libraries/drivers/src/at32f413_adc.c **** flag_status adc_calibration_status_get(adc_type *adc_x)
 243:./libraries/drivers/src/at32f413_adc.c **** {
 412              		.loc 1 243 1 is_stmt 1 view -0
 413              		.cfi_startproc
 414              		@ args = 0, pretend = 0, frame = 0
 415              		@ frame_needed = 0, uses_anonymous_args = 0
 416              		@ link register save eliminated.
 244:./libraries/drivers/src/at32f413_adc.c ****   if(adc_x->ctrl2_bit.adcal)
 417              		.loc 1 244 3 view .LVU80
 418              		.loc 1 244 22 is_stmt 0 view .LVU81
 419 0000 8368     		ldr	r3, [r0, #8]
 420              		.loc 1 244 5 view .LVU82
 421 0002 13F0040F 		tst	r3, #4
 422 0006 01D0     		beq	.L27
 245:./libraries/drivers/src/at32f413_adc.c ****   {
 246:./libraries/drivers/src/at32f413_adc.c ****     return SET;
 423              		.loc 1 246 12 view .LVU83
 424 0008 0120     		movs	r0, #1
 425              	.LVL26:
 426              		.loc 1 246 12 view .LVU84
 427 000a 7047     		bx	lr
 428              	.LVL27:
 429              	.L27:
 247:./libraries/drivers/src/at32f413_adc.c ****   }
 248:./libraries/drivers/src/at32f413_adc.c ****   else
 249:./libraries/drivers/src/at32f413_adc.c ****   {
 250:./libraries/drivers/src/at32f413_adc.c ****     return RESET;
 430              		.loc 1 250 12 view .LVU85
 431 000c 0020     		movs	r0, #0
 432              	.LVL28:
 251:./libraries/drivers/src/at32f413_adc.c ****   }
 252:./libraries/drivers/src/at32f413_adc.c **** }
 433              		.loc 1 252 1 view .LVU86
 434 000e 7047     		bx	lr
 435              		.cfi_endproc
 436              	.LFE143:
 438              		.section	.text.adc_voltage_monitor_enable,"ax",%progbits
 439              		.align	1
 440              		.global	adc_voltage_monitor_enable
 441              		.syntax unified
 442              		.thumb
 443              		.thumb_func
 444              		.fpu fpv4-sp-d16
 446              	adc_voltage_monitor_enable:
ARM GAS  C:\Users\J\AppData\Local\Temp\cco2cDAd.s 			page 13


 447              	.LVL29:
 448              	.LFB144:
 253:./libraries/drivers/src/at32f413_adc.c **** 
 254:./libraries/drivers/src/at32f413_adc.c **** /**
 255:./libraries/drivers/src/at32f413_adc.c ****   * @brief  enable or disable the voltage monitoring on single/all ordinary or preempt channels of 
 256:./libraries/drivers/src/at32f413_adc.c ****   * @param  adc_x: select the adc peripheral.
 257:./libraries/drivers/src/at32f413_adc.c ****   *         this parameter can be one of the following values:
 258:./libraries/drivers/src/at32f413_adc.c ****   *         ADC1, ADC2.
 259:./libraries/drivers/src/at32f413_adc.c ****   * @param  adc_voltage_monitoring: choose the adc_voltage_monitoring config.
 260:./libraries/drivers/src/at32f413_adc.c ****   *         this parameter can be one of the following values:
 261:./libraries/drivers/src/at32f413_adc.c ****   *         - ADC_VMONITOR_SINGLE_ORDINARY
 262:./libraries/drivers/src/at32f413_adc.c ****   *         - ADC_VMONITOR_SINGLE_PREEMPT
 263:./libraries/drivers/src/at32f413_adc.c ****   *         - ADC_VMONITOR_SINGLE_ORDINARY_PREEMPT
 264:./libraries/drivers/src/at32f413_adc.c ****   *         - ADC_VMONITOR_ALL_ORDINARY
 265:./libraries/drivers/src/at32f413_adc.c ****   *         - ADC_VMONITOR_ALL_PREEMPT
 266:./libraries/drivers/src/at32f413_adc.c ****   *         - ADC_VMONITOR_ALL_ORDINARY_PREEMPT
 267:./libraries/drivers/src/at32f413_adc.c ****   *         - ADC_VMONITOR_NONE
 268:./libraries/drivers/src/at32f413_adc.c ****   * @retval none
 269:./libraries/drivers/src/at32f413_adc.c ****   */
 270:./libraries/drivers/src/at32f413_adc.c **** void adc_voltage_monitor_enable(adc_type *adc_x, adc_voltage_monitoring_type adc_voltage_monitoring
 271:./libraries/drivers/src/at32f413_adc.c **** {
 449              		.loc 1 271 1 is_stmt 1 view -0
 450              		.cfi_startproc
 451              		@ args = 0, pretend = 0, frame = 0
 452              		@ frame_needed = 0, uses_anonymous_args = 0
 453              		@ link register save eliminated.
 272:./libraries/drivers/src/at32f413_adc.c ****   adc_x->ctrl1_bit.ocvmen = FALSE;
 454              		.loc 1 272 3 view .LVU88
 455              		.loc 1 272 27 is_stmt 0 view .LVU89
 456 0000 4268     		ldr	r2, [r0, #4]
 457 0002 6FF3D752 		bfc	r2, #23, #1
 458 0006 4260     		str	r2, [r0, #4]
 273:./libraries/drivers/src/at32f413_adc.c ****   adc_x->ctrl1_bit.pcvmen = FALSE;
 459              		.loc 1 273 3 is_stmt 1 view .LVU90
 460              		.loc 1 273 27 is_stmt 0 view .LVU91
 461 0008 4268     		ldr	r2, [r0, #4]
 462 000a 6FF39652 		bfc	r2, #22, #1
 463 000e 4260     		str	r2, [r0, #4]
 274:./libraries/drivers/src/at32f413_adc.c ****   adc_x->ctrl1_bit.vmsgen = FALSE;
 464              		.loc 1 274 3 is_stmt 1 view .LVU92
 465              		.loc 1 274 27 is_stmt 0 view .LVU93
 466 0010 4268     		ldr	r2, [r0, #4]
 467 0012 6FF34922 		bfc	r2, #9, #1
 468 0016 4260     		str	r2, [r0, #4]
 275:./libraries/drivers/src/at32f413_adc.c ****   adc_x->ctrl1 |= adc_voltage_monitoring;
 469              		.loc 1 275 3 is_stmt 1 view .LVU94
 470              		.loc 1 275 16 is_stmt 0 view .LVU95
 471 0018 4368     		ldr	r3, [r0, #4]
 472 001a 0B43     		orrs	r3, r3, r1
 473 001c 4360     		str	r3, [r0, #4]
 276:./libraries/drivers/src/at32f413_adc.c **** }
 474              		.loc 1 276 1 view .LVU96
 475 001e 7047     		bx	lr
 476              		.cfi_endproc
 477              	.LFE144:
 479              		.section	.text.adc_voltage_monitor_threshold_value_set,"ax",%progbits
 480              		.align	1
ARM GAS  C:\Users\J\AppData\Local\Temp\cco2cDAd.s 			page 14


 481              		.global	adc_voltage_monitor_threshold_value_set
 482              		.syntax unified
 483              		.thumb
 484              		.thumb_func
 485              		.fpu fpv4-sp-d16
 487              	adc_voltage_monitor_threshold_value_set:
 488              	.LVL30:
 489              	.LFB145:
 277:./libraries/drivers/src/at32f413_adc.c **** 
 278:./libraries/drivers/src/at32f413_adc.c **** /**
 279:./libraries/drivers/src/at32f413_adc.c ****   * @brief  set voltage monitoring's high and low thresholds value of the specified adc peripheral.
 280:./libraries/drivers/src/at32f413_adc.c ****   * @param  adc_x: select the adc peripheral.
 281:./libraries/drivers/src/at32f413_adc.c ****   *         this parameter can be one of the following values:
 282:./libraries/drivers/src/at32f413_adc.c ****   *         ADC1, ADC2.
 283:./libraries/drivers/src/at32f413_adc.c ****   * @param  adc_high_threshold: voltage monitoring's high thresholds value.
 284:./libraries/drivers/src/at32f413_adc.c ****   *         this parameter can be:
 285:./libraries/drivers/src/at32f413_adc.c ****   *         - (0x000~0xFFF)
 286:./libraries/drivers/src/at32f413_adc.c ****   * @param  adc_low_threshold: voltage monitoring's low thresholds value.
 287:./libraries/drivers/src/at32f413_adc.c ****   *         this parameter can be:
 288:./libraries/drivers/src/at32f413_adc.c ****   *         - (0x000~0xFFF)
 289:./libraries/drivers/src/at32f413_adc.c ****   * @retval none
 290:./libraries/drivers/src/at32f413_adc.c ****   */
 291:./libraries/drivers/src/at32f413_adc.c **** void adc_voltage_monitor_threshold_value_set(adc_type *adc_x, uint16_t adc_high_threshold, uint16_t
 292:./libraries/drivers/src/at32f413_adc.c **** {
 490              		.loc 1 292 1 is_stmt 1 view -0
 491              		.cfi_startproc
 492              		@ args = 0, pretend = 0, frame = 0
 493              		@ frame_needed = 0, uses_anonymous_args = 0
 494              		@ link register save eliminated.
 293:./libraries/drivers/src/at32f413_adc.c ****   adc_x->vmhb_bit.vmhb = adc_high_threshold;
 495              		.loc 1 293 3 view .LVU98
 496              		.loc 1 293 24 is_stmt 0 view .LVU99
 497 0000 436A     		ldr	r3, [r0, #36]
 498 0002 61F30B03 		bfi	r3, r1, #0, #12
 499 0006 4362     		str	r3, [r0, #36]
 294:./libraries/drivers/src/at32f413_adc.c ****   adc_x->vmlb_bit.vmlb = adc_low_threshold;
 500              		.loc 1 294 3 is_stmt 1 view .LVU100
 501              		.loc 1 294 24 is_stmt 0 view .LVU101
 502 0008 836A     		ldr	r3, [r0, #40]
 503 000a 62F30B03 		bfi	r3, r2, #0, #12
 504 000e 8362     		str	r3, [r0, #40]
 295:./libraries/drivers/src/at32f413_adc.c **** }
 505              		.loc 1 295 1 view .LVU102
 506 0010 7047     		bx	lr
 507              		.cfi_endproc
 508              	.LFE145:
 510              		.section	.text.adc_voltage_monitor_single_channel_select,"ax",%progbits
 511              		.align	1
 512              		.global	adc_voltage_monitor_single_channel_select
 513              		.syntax unified
 514              		.thumb
 515              		.thumb_func
 516              		.fpu fpv4-sp-d16
 518              	adc_voltage_monitor_single_channel_select:
 519              	.LVL31:
 520              	.LFB146:
 296:./libraries/drivers/src/at32f413_adc.c **** 
ARM GAS  C:\Users\J\AppData\Local\Temp\cco2cDAd.s 			page 15


 297:./libraries/drivers/src/at32f413_adc.c **** /**
 298:./libraries/drivers/src/at32f413_adc.c ****   * @brief  select the voltage monitoring's channel of the specified adc peripheral.
 299:./libraries/drivers/src/at32f413_adc.c ****   * @param  adc_x: select the adc peripheral.
 300:./libraries/drivers/src/at32f413_adc.c ****   *         this parameter can be one of the following values:
 301:./libraries/drivers/src/at32f413_adc.c ****   *         ADC1, ADC2.
 302:./libraries/drivers/src/at32f413_adc.c ****   * @param  adc_channel: select the channel.
 303:./libraries/drivers/src/at32f413_adc.c ****   *         this parameter can be one of the following values:
 304:./libraries/drivers/src/at32f413_adc.c ****   *         - ADC_CHANNEL_0    - ADC_CHANNEL_1    - ADC_CHANNEL_2    - ADC_CHANNEL_3
 305:./libraries/drivers/src/at32f413_adc.c ****   *         - ADC_CHANNEL_4    - ADC_CHANNEL_5    - ADC_CHANNEL_6    - ADC_CHANNEL_7
 306:./libraries/drivers/src/at32f413_adc.c ****   *         - ADC_CHANNEL_8    - ADC_CHANNEL_9    - ADC_CHANNEL_10   - ADC_CHANNEL_11
 307:./libraries/drivers/src/at32f413_adc.c ****   *         - ADC_CHANNEL_12   - ADC_CHANNEL_13   - ADC_CHANNEL_14   - ADC_CHANNEL_15
 308:./libraries/drivers/src/at32f413_adc.c ****   *         - ADC_CHANNEL_16   - ADC_CHANNEL_17
 309:./libraries/drivers/src/at32f413_adc.c ****   * @retval none
 310:./libraries/drivers/src/at32f413_adc.c ****   */
 311:./libraries/drivers/src/at32f413_adc.c **** void adc_voltage_monitor_single_channel_select(adc_type *adc_x, adc_channel_select_type adc_channel
 312:./libraries/drivers/src/at32f413_adc.c **** {
 521              		.loc 1 312 1 is_stmt 1 view -0
 522              		.cfi_startproc
 523              		@ args = 0, pretend = 0, frame = 0
 524              		@ frame_needed = 0, uses_anonymous_args = 0
 525              		@ link register save eliminated.
 313:./libraries/drivers/src/at32f413_adc.c ****   adc_x->ctrl1_bit.vmcsel = adc_channel;
 526              		.loc 1 313 3 view .LVU104
 527              		.loc 1 313 27 is_stmt 0 view .LVU105
 528 0000 4368     		ldr	r3, [r0, #4]
 529 0002 61F30403 		bfi	r3, r1, #0, #5
 530 0006 4360     		str	r3, [r0, #4]
 314:./libraries/drivers/src/at32f413_adc.c **** }
 531              		.loc 1 314 1 view .LVU106
 532 0008 7047     		bx	lr
 533              		.cfi_endproc
 534              	.LFE146:
 536              		.section	.text.adc_ordinary_channel_set,"ax",%progbits
 537              		.align	1
 538              		.global	adc_ordinary_channel_set
 539              		.syntax unified
 540              		.thumb
 541              		.thumb_func
 542              		.fpu fpv4-sp-d16
 544              	adc_ordinary_channel_set:
 545              	.LVL32:
 546              	.LFB147:
 315:./libraries/drivers/src/at32f413_adc.c **** 
 316:./libraries/drivers/src/at32f413_adc.c **** /**
 317:./libraries/drivers/src/at32f413_adc.c ****   * @brief  set ordinary channel's corresponding rank in the sequencer and sample time of the speci
 318:./libraries/drivers/src/at32f413_adc.c ****   * @param  adc_x: select the adc peripheral.
 319:./libraries/drivers/src/at32f413_adc.c ****   *         this parameter can be one of the following values:
 320:./libraries/drivers/src/at32f413_adc.c ****   *         ADC1, ADC2.
 321:./libraries/drivers/src/at32f413_adc.c ****   * @param  adc_channel: select the channel.
 322:./libraries/drivers/src/at32f413_adc.c ****   *         this parameter can be one of the following values:
 323:./libraries/drivers/src/at32f413_adc.c ****   *         - ADC_CHANNEL_0    - ADC_CHANNEL_1    - ADC_CHANNEL_2    - ADC_CHANNEL_3
 324:./libraries/drivers/src/at32f413_adc.c ****   *         - ADC_CHANNEL_4    - ADC_CHANNEL_5    - ADC_CHANNEL_6    - ADC_CHANNEL_7
 325:./libraries/drivers/src/at32f413_adc.c ****   *         - ADC_CHANNEL_8    - ADC_CHANNEL_9    - ADC_CHANNEL_10   - ADC_CHANNEL_11
 326:./libraries/drivers/src/at32f413_adc.c ****   *         - ADC_CHANNEL_12   - ADC_CHANNEL_13   - ADC_CHANNEL_14   - ADC_CHANNEL_15
 327:./libraries/drivers/src/at32f413_adc.c ****   *         - ADC_CHANNEL_16   - ADC_CHANNEL_17
 328:./libraries/drivers/src/at32f413_adc.c ****   * @param  adc_sequence: set rank in the ordinary group sequencer.
 329:./libraries/drivers/src/at32f413_adc.c ****   *         this parameter must be:
ARM GAS  C:\Users\J\AppData\Local\Temp\cco2cDAd.s 			page 16


 330:./libraries/drivers/src/at32f413_adc.c ****   *         - between 1 to 16
 331:./libraries/drivers/src/at32f413_adc.c ****   * @param  adc_sampletime: set the sampletime of adc channel.
 332:./libraries/drivers/src/at32f413_adc.c ****   *         this parameter can be one of the following values:
 333:./libraries/drivers/src/at32f413_adc.c ****   *         - ADC_SAMPLETIME_1_5
 334:./libraries/drivers/src/at32f413_adc.c ****   *         - ADC_SAMPLETIME_7_5
 335:./libraries/drivers/src/at32f413_adc.c ****   *         - ADC_SAMPLETIME_13_5
 336:./libraries/drivers/src/at32f413_adc.c ****   *         - ADC_SAMPLETIME_28_5
 337:./libraries/drivers/src/at32f413_adc.c ****   *         - ADC_SAMPLETIME_41_5
 338:./libraries/drivers/src/at32f413_adc.c ****   *         - ADC_SAMPLETIME_55_5
 339:./libraries/drivers/src/at32f413_adc.c ****   *         - ADC_SAMPLETIME_71_5
 340:./libraries/drivers/src/at32f413_adc.c ****   *         - ADC_SAMPLETIME_239_5
 341:./libraries/drivers/src/at32f413_adc.c ****   * @retval none
 342:./libraries/drivers/src/at32f413_adc.c ****   */
 343:./libraries/drivers/src/at32f413_adc.c **** void adc_ordinary_channel_set(adc_type *adc_x, adc_channel_select_type adc_channel, uint8_t adc_seq
 344:./libraries/drivers/src/at32f413_adc.c **** {
 547              		.loc 1 344 1 is_stmt 1 view -0
 548              		.cfi_startproc
 549              		@ args = 0, pretend = 0, frame = 0
 550              		@ frame_needed = 0, uses_anonymous_args = 0
 551              		@ link register save eliminated.
 552              		.loc 1 344 1 is_stmt 0 view .LVU108
 553 0000 10B4     		push	{r4}
 554              	.LCFI1:
 555              		.cfi_def_cfa_offset 4
 556              		.cfi_offset 4, -4
 345:./libraries/drivers/src/at32f413_adc.c ****   switch(adc_channel)
 557              		.loc 1 345 3 is_stmt 1 view .LVU109
 558 0002 1129     		cmp	r1, #17
 559 0004 0ED8     		bhi	.L32
 560 0006 DFE801F0 		tbb	[pc, r1]
 561              	.L34:
 562 000a 09       		.byte	(.L51-.L34)/2
 563 000b 1A       		.byte	(.L50-.L34)/2
 564 000c 1F       		.byte	(.L49-.L34)/2
 565 000d 24       		.byte	(.L48-.L34)/2
 566 000e 29       		.byte	(.L47-.L34)/2
 567 000f 2E       		.byte	(.L46-.L34)/2
 568 0010 33       		.byte	(.L45-.L34)/2
 569 0011 38       		.byte	(.L44-.L34)/2
 570 0012 3D       		.byte	(.L43-.L34)/2
 571 0013 42       		.byte	(.L42-.L34)/2
 572 0014 47       		.byte	(.L41-.L34)/2
 573 0015 4C       		.byte	(.L40-.L34)/2
 574 0016 51       		.byte	(.L39-.L34)/2
 575 0017 56       		.byte	(.L38-.L34)/2
 576 0018 5B       		.byte	(.L37-.L34)/2
 577 0019 60       		.byte	(.L36-.L34)/2
 578 001a 65       		.byte	(.L35-.L34)/2
 579 001b 6A       		.byte	(.L33-.L34)/2
 580              		.p2align 1
 581              	.L51:
 346:./libraries/drivers/src/at32f413_adc.c ****   {
 347:./libraries/drivers/src/at32f413_adc.c ****     case ADC_CHANNEL_0:
 348:./libraries/drivers/src/at32f413_adc.c ****       adc_x->spt2_bit.cspt0 = adc_sampletime;
 582              		.loc 1 348 7 view .LVU110
 583              		.loc 1 348 29 is_stmt 0 view .LVU111
 584 001c 0469     		ldr	r4, [r0, #16]
ARM GAS  C:\Users\J\AppData\Local\Temp\cco2cDAd.s 			page 17


 585 001e 63F30204 		bfi	r4, r3, #0, #3
 586 0022 0461     		str	r4, [r0, #16]
 349:./libraries/drivers/src/at32f413_adc.c ****       break;
 587              		.loc 1 349 7 is_stmt 1 view .LVU112
 588              	.L32:
 350:./libraries/drivers/src/at32f413_adc.c ****     case ADC_CHANNEL_1:
 351:./libraries/drivers/src/at32f413_adc.c ****       adc_x->spt2_bit.cspt1 = adc_sampletime;
 352:./libraries/drivers/src/at32f413_adc.c ****       break;
 353:./libraries/drivers/src/at32f413_adc.c ****     case ADC_CHANNEL_2:
 354:./libraries/drivers/src/at32f413_adc.c ****       adc_x->spt2_bit.cspt2 = adc_sampletime;
 355:./libraries/drivers/src/at32f413_adc.c ****       break;
 356:./libraries/drivers/src/at32f413_adc.c ****     case ADC_CHANNEL_3:
 357:./libraries/drivers/src/at32f413_adc.c ****       adc_x->spt2_bit.cspt3 = adc_sampletime;
 358:./libraries/drivers/src/at32f413_adc.c ****       break;
 359:./libraries/drivers/src/at32f413_adc.c ****     case ADC_CHANNEL_4:
 360:./libraries/drivers/src/at32f413_adc.c ****       adc_x->spt2_bit.cspt4 = adc_sampletime;
 361:./libraries/drivers/src/at32f413_adc.c ****       break;
 362:./libraries/drivers/src/at32f413_adc.c ****     case ADC_CHANNEL_5:
 363:./libraries/drivers/src/at32f413_adc.c ****       adc_x->spt2_bit.cspt5 = adc_sampletime;
 364:./libraries/drivers/src/at32f413_adc.c ****       break;
 365:./libraries/drivers/src/at32f413_adc.c ****     case ADC_CHANNEL_6:
 366:./libraries/drivers/src/at32f413_adc.c ****       adc_x->spt2_bit.cspt6 = adc_sampletime;
 367:./libraries/drivers/src/at32f413_adc.c ****       break;
 368:./libraries/drivers/src/at32f413_adc.c ****     case ADC_CHANNEL_7:
 369:./libraries/drivers/src/at32f413_adc.c ****       adc_x->spt2_bit.cspt7 = adc_sampletime;
 370:./libraries/drivers/src/at32f413_adc.c ****       break;
 371:./libraries/drivers/src/at32f413_adc.c ****     case ADC_CHANNEL_8:
 372:./libraries/drivers/src/at32f413_adc.c ****       adc_x->spt2_bit.cspt8 = adc_sampletime;
 373:./libraries/drivers/src/at32f413_adc.c ****       break;
 374:./libraries/drivers/src/at32f413_adc.c ****     case ADC_CHANNEL_9:
 375:./libraries/drivers/src/at32f413_adc.c ****       adc_x->spt2_bit.cspt9 = adc_sampletime;
 376:./libraries/drivers/src/at32f413_adc.c ****       break;
 377:./libraries/drivers/src/at32f413_adc.c ****     case ADC_CHANNEL_10:
 378:./libraries/drivers/src/at32f413_adc.c ****       adc_x->spt1_bit.cspt10 = adc_sampletime;
 379:./libraries/drivers/src/at32f413_adc.c ****       break;
 380:./libraries/drivers/src/at32f413_adc.c ****     case ADC_CHANNEL_11:
 381:./libraries/drivers/src/at32f413_adc.c ****       adc_x->spt1_bit.cspt11 = adc_sampletime;
 382:./libraries/drivers/src/at32f413_adc.c ****       break;
 383:./libraries/drivers/src/at32f413_adc.c ****     case ADC_CHANNEL_12:
 384:./libraries/drivers/src/at32f413_adc.c ****       adc_x->spt1_bit.cspt12 = adc_sampletime;
 385:./libraries/drivers/src/at32f413_adc.c ****       break;
 386:./libraries/drivers/src/at32f413_adc.c ****     case ADC_CHANNEL_13:
 387:./libraries/drivers/src/at32f413_adc.c ****       adc_x->spt1_bit.cspt13 = adc_sampletime;
 388:./libraries/drivers/src/at32f413_adc.c ****       break;
 389:./libraries/drivers/src/at32f413_adc.c ****     case ADC_CHANNEL_14:
 390:./libraries/drivers/src/at32f413_adc.c ****       adc_x->spt1_bit.cspt14 = adc_sampletime;
 391:./libraries/drivers/src/at32f413_adc.c ****       break;
 392:./libraries/drivers/src/at32f413_adc.c ****     case ADC_CHANNEL_15:
 393:./libraries/drivers/src/at32f413_adc.c ****       adc_x->spt1_bit.cspt15 = adc_sampletime;
 394:./libraries/drivers/src/at32f413_adc.c ****       break;
 395:./libraries/drivers/src/at32f413_adc.c ****     case ADC_CHANNEL_16:
 396:./libraries/drivers/src/at32f413_adc.c ****       adc_x->spt1_bit.cspt16 = adc_sampletime;
 397:./libraries/drivers/src/at32f413_adc.c ****       break;
 398:./libraries/drivers/src/at32f413_adc.c ****     case ADC_CHANNEL_17:
 399:./libraries/drivers/src/at32f413_adc.c ****       adc_x->spt1_bit.cspt17 = adc_sampletime;
 400:./libraries/drivers/src/at32f413_adc.c ****       break;
 401:./libraries/drivers/src/at32f413_adc.c ****     default:
ARM GAS  C:\Users\J\AppData\Local\Temp\cco2cDAd.s 			page 18


 402:./libraries/drivers/src/at32f413_adc.c ****       break;
 403:./libraries/drivers/src/at32f413_adc.c ****   }
 404:./libraries/drivers/src/at32f413_adc.c ****   switch(adc_sequence)
 589              		.loc 1 404 3 view .LVU113
 590 0024 013A     		subs	r2, r2, #1
 591              	.LVL33:
 592              		.loc 1 404 3 is_stmt 0 view .LVU114
 593 0026 0F2A     		cmp	r2, #15
 594 0028 62D8     		bhi	.L31
 595 002a DFE802F0 		tbb	[pc, r2]
 596              	.LVL34:
 597              	.L54:
 598 002e 5D       		.byte	(.L69-.L54)/2
 599 002f 64       		.byte	(.L68-.L54)/2
 600 0030 69       		.byte	(.L67-.L54)/2
 601 0031 6E       		.byte	(.L66-.L54)/2
 602 0032 73       		.byte	(.L65-.L54)/2
 603 0033 78       		.byte	(.L64-.L54)/2
 604 0034 7D       		.byte	(.L63-.L54)/2
 605 0035 82       		.byte	(.L62-.L54)/2
 606 0036 87       		.byte	(.L61-.L54)/2
 607 0037 8C       		.byte	(.L60-.L54)/2
 608 0038 91       		.byte	(.L59-.L54)/2
 609 0039 96       		.byte	(.L58-.L54)/2
 610 003a 9B       		.byte	(.L57-.L54)/2
 611 003b A0       		.byte	(.L56-.L54)/2
 612 003c A5       		.byte	(.L55-.L54)/2
 613 003d AA       		.byte	(.L53-.L54)/2
 614              		.p2align 1
 615              	.L50:
 351:./libraries/drivers/src/at32f413_adc.c ****       break;
 616              		.loc 1 351 7 is_stmt 1 view .LVU115
 351:./libraries/drivers/src/at32f413_adc.c ****       break;
 617              		.loc 1 351 29 is_stmt 0 view .LVU116
 618 003e 0469     		ldr	r4, [r0, #16]
 619 0040 63F3C504 		bfi	r4, r3, #3, #3
 620 0044 0461     		str	r4, [r0, #16]
 352:./libraries/drivers/src/at32f413_adc.c ****     case ADC_CHANNEL_2:
 621              		.loc 1 352 7 is_stmt 1 view .LVU117
 622 0046 EDE7     		b	.L32
 623              	.L49:
 354:./libraries/drivers/src/at32f413_adc.c ****       break;
 624              		.loc 1 354 7 view .LVU118
 354:./libraries/drivers/src/at32f413_adc.c ****       break;
 625              		.loc 1 354 29 is_stmt 0 view .LVU119
 626 0048 0469     		ldr	r4, [r0, #16]
 627 004a 63F38814 		bfi	r4, r3, #6, #3
 628 004e 0461     		str	r4, [r0, #16]
 355:./libraries/drivers/src/at32f413_adc.c ****     case ADC_CHANNEL_3:
 629              		.loc 1 355 7 is_stmt 1 view .LVU120
 630 0050 E8E7     		b	.L32
 631              	.L48:
 357:./libraries/drivers/src/at32f413_adc.c ****       break;
 632              		.loc 1 357 7 view .LVU121
 357:./libraries/drivers/src/at32f413_adc.c ****       break;
 633              		.loc 1 357 29 is_stmt 0 view .LVU122
 634 0052 0469     		ldr	r4, [r0, #16]
ARM GAS  C:\Users\J\AppData\Local\Temp\cco2cDAd.s 			page 19


 635 0054 63F34B24 		bfi	r4, r3, #9, #3
 636 0058 0461     		str	r4, [r0, #16]
 358:./libraries/drivers/src/at32f413_adc.c ****     case ADC_CHANNEL_4:
 637              		.loc 1 358 7 is_stmt 1 view .LVU123
 638 005a E3E7     		b	.L32
 639              	.L47:
 360:./libraries/drivers/src/at32f413_adc.c ****       break;
 640              		.loc 1 360 7 view .LVU124
 360:./libraries/drivers/src/at32f413_adc.c ****       break;
 641              		.loc 1 360 29 is_stmt 0 view .LVU125
 642 005c 0469     		ldr	r4, [r0, #16]
 643 005e 63F30E34 		bfi	r4, r3, #12, #3
 644 0062 0461     		str	r4, [r0, #16]
 361:./libraries/drivers/src/at32f413_adc.c ****     case ADC_CHANNEL_5:
 645              		.loc 1 361 7 is_stmt 1 view .LVU126
 646 0064 DEE7     		b	.L32
 647              	.L46:
 363:./libraries/drivers/src/at32f413_adc.c ****       break;
 648              		.loc 1 363 7 view .LVU127
 363:./libraries/drivers/src/at32f413_adc.c ****       break;
 649              		.loc 1 363 29 is_stmt 0 view .LVU128
 650 0066 0469     		ldr	r4, [r0, #16]
 651 0068 63F3D134 		bfi	r4, r3, #15, #3
 652 006c 0461     		str	r4, [r0, #16]
 364:./libraries/drivers/src/at32f413_adc.c ****     case ADC_CHANNEL_6:
 653              		.loc 1 364 7 is_stmt 1 view .LVU129
 654 006e D9E7     		b	.L32
 655              	.L45:
 366:./libraries/drivers/src/at32f413_adc.c ****       break;
 656              		.loc 1 366 7 view .LVU130
 366:./libraries/drivers/src/at32f413_adc.c ****       break;
 657              		.loc 1 366 29 is_stmt 0 view .LVU131
 658 0070 0469     		ldr	r4, [r0, #16]
 659 0072 63F39444 		bfi	r4, r3, #18, #3
 660 0076 0461     		str	r4, [r0, #16]
 367:./libraries/drivers/src/at32f413_adc.c ****     case ADC_CHANNEL_7:
 661              		.loc 1 367 7 is_stmt 1 view .LVU132
 662 0078 D4E7     		b	.L32
 663              	.L44:
 369:./libraries/drivers/src/at32f413_adc.c ****       break;
 664              		.loc 1 369 7 view .LVU133
 369:./libraries/drivers/src/at32f413_adc.c ****       break;
 665              		.loc 1 369 29 is_stmt 0 view .LVU134
 666 007a 0469     		ldr	r4, [r0, #16]
 667 007c 63F35754 		bfi	r4, r3, #21, #3
 668 0080 0461     		str	r4, [r0, #16]
 370:./libraries/drivers/src/at32f413_adc.c ****     case ADC_CHANNEL_8:
 669              		.loc 1 370 7 is_stmt 1 view .LVU135
 670 0082 CFE7     		b	.L32
 671              	.L43:
 372:./libraries/drivers/src/at32f413_adc.c ****       break;
 672              		.loc 1 372 7 view .LVU136
 372:./libraries/drivers/src/at32f413_adc.c ****       break;
 673              		.loc 1 372 29 is_stmt 0 view .LVU137
 674 0084 0469     		ldr	r4, [r0, #16]
 675 0086 63F31A64 		bfi	r4, r3, #24, #3
 676 008a 0461     		str	r4, [r0, #16]
ARM GAS  C:\Users\J\AppData\Local\Temp\cco2cDAd.s 			page 20


 373:./libraries/drivers/src/at32f413_adc.c ****     case ADC_CHANNEL_9:
 677              		.loc 1 373 7 is_stmt 1 view .LVU138
 678 008c CAE7     		b	.L32
 679              	.L42:
 375:./libraries/drivers/src/at32f413_adc.c ****       break;
 680              		.loc 1 375 7 view .LVU139
 375:./libraries/drivers/src/at32f413_adc.c ****       break;
 681              		.loc 1 375 29 is_stmt 0 view .LVU140
 682 008e 0469     		ldr	r4, [r0, #16]
 683 0090 63F3DD64 		bfi	r4, r3, #27, #3
 684 0094 0461     		str	r4, [r0, #16]
 376:./libraries/drivers/src/at32f413_adc.c ****     case ADC_CHANNEL_10:
 685              		.loc 1 376 7 is_stmt 1 view .LVU141
 686 0096 C5E7     		b	.L32
 687              	.L41:
 378:./libraries/drivers/src/at32f413_adc.c ****       break;
 688              		.loc 1 378 7 view .LVU142
 378:./libraries/drivers/src/at32f413_adc.c ****       break;
 689              		.loc 1 378 30 is_stmt 0 view .LVU143
 690 0098 C468     		ldr	r4, [r0, #12]
 691 009a 63F30204 		bfi	r4, r3, #0, #3
 692 009e C460     		str	r4, [r0, #12]
 379:./libraries/drivers/src/at32f413_adc.c ****     case ADC_CHANNEL_11:
 693              		.loc 1 379 7 is_stmt 1 view .LVU144
 694 00a0 C0E7     		b	.L32
 695              	.L40:
 381:./libraries/drivers/src/at32f413_adc.c ****       break;
 696              		.loc 1 381 7 view .LVU145
 381:./libraries/drivers/src/at32f413_adc.c ****       break;
 697              		.loc 1 381 30 is_stmt 0 view .LVU146
 698 00a2 C468     		ldr	r4, [r0, #12]
 699 00a4 63F3C504 		bfi	r4, r3, #3, #3
 700 00a8 C460     		str	r4, [r0, #12]
 382:./libraries/drivers/src/at32f413_adc.c ****     case ADC_CHANNEL_12:
 701              		.loc 1 382 7 is_stmt 1 view .LVU147
 702 00aa BBE7     		b	.L32
 703              	.L39:
 384:./libraries/drivers/src/at32f413_adc.c ****       break;
 704              		.loc 1 384 7 view .LVU148
 384:./libraries/drivers/src/at32f413_adc.c ****       break;
 705              		.loc 1 384 30 is_stmt 0 view .LVU149
 706 00ac C468     		ldr	r4, [r0, #12]
 707 00ae 63F38814 		bfi	r4, r3, #6, #3
 708 00b2 C460     		str	r4, [r0, #12]
 385:./libraries/drivers/src/at32f413_adc.c ****     case ADC_CHANNEL_13:
 709              		.loc 1 385 7 is_stmt 1 view .LVU150
 710 00b4 B6E7     		b	.L32
 711              	.L38:
 387:./libraries/drivers/src/at32f413_adc.c ****       break;
 712              		.loc 1 387 7 view .LVU151
 387:./libraries/drivers/src/at32f413_adc.c ****       break;
 713              		.loc 1 387 30 is_stmt 0 view .LVU152
 714 00b6 C468     		ldr	r4, [r0, #12]
 715 00b8 63F34B24 		bfi	r4, r3, #9, #3
 716 00bc C460     		str	r4, [r0, #12]
 388:./libraries/drivers/src/at32f413_adc.c ****     case ADC_CHANNEL_14:
 717              		.loc 1 388 7 is_stmt 1 view .LVU153
ARM GAS  C:\Users\J\AppData\Local\Temp\cco2cDAd.s 			page 21


 718 00be B1E7     		b	.L32
 719              	.L37:
 390:./libraries/drivers/src/at32f413_adc.c ****       break;
 720              		.loc 1 390 7 view .LVU154
 390:./libraries/drivers/src/at32f413_adc.c ****       break;
 721              		.loc 1 390 30 is_stmt 0 view .LVU155
 722 00c0 C468     		ldr	r4, [r0, #12]
 723 00c2 63F30E34 		bfi	r4, r3, #12, #3
 724 00c6 C460     		str	r4, [r0, #12]
 391:./libraries/drivers/src/at32f413_adc.c ****     case ADC_CHANNEL_15:
 725              		.loc 1 391 7 is_stmt 1 view .LVU156
 726 00c8 ACE7     		b	.L32
 727              	.L36:
 393:./libraries/drivers/src/at32f413_adc.c ****       break;
 728              		.loc 1 393 7 view .LVU157
 393:./libraries/drivers/src/at32f413_adc.c ****       break;
 729              		.loc 1 393 30 is_stmt 0 view .LVU158
 730 00ca C468     		ldr	r4, [r0, #12]
 731 00cc 63F3D134 		bfi	r4, r3, #15, #3
 732 00d0 C460     		str	r4, [r0, #12]
 394:./libraries/drivers/src/at32f413_adc.c ****     case ADC_CHANNEL_16:
 733              		.loc 1 394 7 is_stmt 1 view .LVU159
 734 00d2 A7E7     		b	.L32
 735              	.L35:
 396:./libraries/drivers/src/at32f413_adc.c ****       break;
 736              		.loc 1 396 7 view .LVU160
 396:./libraries/drivers/src/at32f413_adc.c ****       break;
 737              		.loc 1 396 30 is_stmt 0 view .LVU161
 738 00d4 C468     		ldr	r4, [r0, #12]
 739 00d6 63F39444 		bfi	r4, r3, #18, #3
 740 00da C460     		str	r4, [r0, #12]
 397:./libraries/drivers/src/at32f413_adc.c ****     case ADC_CHANNEL_17:
 741              		.loc 1 397 7 is_stmt 1 view .LVU162
 742 00dc A2E7     		b	.L32
 743              	.L33:
 399:./libraries/drivers/src/at32f413_adc.c ****       break;
 744              		.loc 1 399 7 view .LVU163
 399:./libraries/drivers/src/at32f413_adc.c ****       break;
 745              		.loc 1 399 30 is_stmt 0 view .LVU164
 746 00de C468     		ldr	r4, [r0, #12]
 747 00e0 63F35754 		bfi	r4, r3, #21, #3
 748 00e4 C460     		str	r4, [r0, #12]
 400:./libraries/drivers/src/at32f413_adc.c ****     default:
 749              		.loc 1 400 7 is_stmt 1 view .LVU165
 750 00e6 9DE7     		b	.L32
 751              	.LVL35:
 752              	.L69:
 405:./libraries/drivers/src/at32f413_adc.c ****   {
 406:./libraries/drivers/src/at32f413_adc.c ****     case 1:
 407:./libraries/drivers/src/at32f413_adc.c ****       adc_x->osq3_bit.osn1 = adc_channel;
 753              		.loc 1 407 7 view .LVU166
 754              		.loc 1 407 28 is_stmt 0 view .LVU167
 755 00e8 436B     		ldr	r3, [r0, #52]
 756 00ea 61F30403 		bfi	r3, r1, #0, #5
 757 00ee 4363     		str	r3, [r0, #52]
 408:./libraries/drivers/src/at32f413_adc.c ****       break;
 758              		.loc 1 408 7 is_stmt 1 view .LVU168
ARM GAS  C:\Users\J\AppData\Local\Temp\cco2cDAd.s 			page 22


 759              	.L31:
 409:./libraries/drivers/src/at32f413_adc.c ****     case 2:
 410:./libraries/drivers/src/at32f413_adc.c ****       adc_x->osq3_bit.osn2 = adc_channel;
 411:./libraries/drivers/src/at32f413_adc.c ****       break;
 412:./libraries/drivers/src/at32f413_adc.c ****     case 3:
 413:./libraries/drivers/src/at32f413_adc.c ****       adc_x->osq3_bit.osn3 = adc_channel;
 414:./libraries/drivers/src/at32f413_adc.c ****       break;
 415:./libraries/drivers/src/at32f413_adc.c ****     case 4:
 416:./libraries/drivers/src/at32f413_adc.c ****       adc_x->osq3_bit.osn4 = adc_channel;
 417:./libraries/drivers/src/at32f413_adc.c ****       break;
 418:./libraries/drivers/src/at32f413_adc.c ****     case 5:
 419:./libraries/drivers/src/at32f413_adc.c ****       adc_x->osq3_bit.osn5 = adc_channel;
 420:./libraries/drivers/src/at32f413_adc.c ****       break;
 421:./libraries/drivers/src/at32f413_adc.c ****     case 6:
 422:./libraries/drivers/src/at32f413_adc.c ****       adc_x->osq3_bit.osn6 = adc_channel;
 423:./libraries/drivers/src/at32f413_adc.c ****       break;
 424:./libraries/drivers/src/at32f413_adc.c ****     case 7:
 425:./libraries/drivers/src/at32f413_adc.c ****       adc_x->osq2_bit.osn7 = adc_channel;
 426:./libraries/drivers/src/at32f413_adc.c ****       break;
 427:./libraries/drivers/src/at32f413_adc.c ****     case 8:
 428:./libraries/drivers/src/at32f413_adc.c ****       adc_x->osq2_bit.osn8 = adc_channel;
 429:./libraries/drivers/src/at32f413_adc.c ****       break;
 430:./libraries/drivers/src/at32f413_adc.c ****     case 9:
 431:./libraries/drivers/src/at32f413_adc.c ****       adc_x->osq2_bit.osn9 = adc_channel;
 432:./libraries/drivers/src/at32f413_adc.c ****       break;
 433:./libraries/drivers/src/at32f413_adc.c ****     case 10:
 434:./libraries/drivers/src/at32f413_adc.c ****       adc_x->osq2_bit.osn10 = adc_channel;
 435:./libraries/drivers/src/at32f413_adc.c ****       break;
 436:./libraries/drivers/src/at32f413_adc.c ****     case 11:
 437:./libraries/drivers/src/at32f413_adc.c ****       adc_x->osq2_bit.osn11 = adc_channel;
 438:./libraries/drivers/src/at32f413_adc.c ****       break;
 439:./libraries/drivers/src/at32f413_adc.c ****     case 12:
 440:./libraries/drivers/src/at32f413_adc.c ****       adc_x->osq2_bit.osn12 = adc_channel;
 441:./libraries/drivers/src/at32f413_adc.c ****       break;
 442:./libraries/drivers/src/at32f413_adc.c ****     case 13:
 443:./libraries/drivers/src/at32f413_adc.c ****       adc_x->osq1_bit.osn13 = adc_channel;
 444:./libraries/drivers/src/at32f413_adc.c ****       break;
 445:./libraries/drivers/src/at32f413_adc.c ****     case 14:
 446:./libraries/drivers/src/at32f413_adc.c ****       adc_x->osq1_bit.osn14 = adc_channel;
 447:./libraries/drivers/src/at32f413_adc.c ****       break;
 448:./libraries/drivers/src/at32f413_adc.c ****     case 15:
 449:./libraries/drivers/src/at32f413_adc.c ****       adc_x->osq1_bit.osn15 = adc_channel;
 450:./libraries/drivers/src/at32f413_adc.c ****       break;
 451:./libraries/drivers/src/at32f413_adc.c ****     case 16:
 452:./libraries/drivers/src/at32f413_adc.c ****       adc_x->osq1_bit.osn16 = adc_channel;
 453:./libraries/drivers/src/at32f413_adc.c ****       break;
 454:./libraries/drivers/src/at32f413_adc.c ****     default:
 455:./libraries/drivers/src/at32f413_adc.c ****       break;
 456:./libraries/drivers/src/at32f413_adc.c ****   }
 457:./libraries/drivers/src/at32f413_adc.c **** }
 760              		.loc 1 457 1 is_stmt 0 view .LVU169
 761 00f0 5DF8044B 		ldr	r4, [sp], #4
 762              	.LCFI2:
 763              		.cfi_remember_state
 764              		.cfi_restore 4
 765              		.cfi_def_cfa_offset 0
 766 00f4 7047     		bx	lr
ARM GAS  C:\Users\J\AppData\Local\Temp\cco2cDAd.s 			page 23


 767              	.L68:
 768              	.LCFI3:
 769              		.cfi_restore_state
 410:./libraries/drivers/src/at32f413_adc.c ****       break;
 770              		.loc 1 410 7 is_stmt 1 view .LVU170
 410:./libraries/drivers/src/at32f413_adc.c ****       break;
 771              		.loc 1 410 28 is_stmt 0 view .LVU171
 772 00f6 436B     		ldr	r3, [r0, #52]
 773 00f8 61F34913 		bfi	r3, r1, #5, #5
 774 00fc 4363     		str	r3, [r0, #52]
 411:./libraries/drivers/src/at32f413_adc.c ****     case 3:
 775              		.loc 1 411 7 is_stmt 1 view .LVU172
 776 00fe F7E7     		b	.L31
 777              	.L67:
 413:./libraries/drivers/src/at32f413_adc.c ****       break;
 778              		.loc 1 413 7 view .LVU173
 413:./libraries/drivers/src/at32f413_adc.c ****       break;
 779              		.loc 1 413 28 is_stmt 0 view .LVU174
 780 0100 436B     		ldr	r3, [r0, #52]
 781 0102 61F38E23 		bfi	r3, r1, #10, #5
 782 0106 4363     		str	r3, [r0, #52]
 414:./libraries/drivers/src/at32f413_adc.c ****     case 4:
 783              		.loc 1 414 7 is_stmt 1 view .LVU175
 784 0108 F2E7     		b	.L31
 785              	.L66:
 416:./libraries/drivers/src/at32f413_adc.c ****       break;
 786              		.loc 1 416 7 view .LVU176
 416:./libraries/drivers/src/at32f413_adc.c ****       break;
 787              		.loc 1 416 28 is_stmt 0 view .LVU177
 788 010a 436B     		ldr	r3, [r0, #52]
 789 010c 61F3D333 		bfi	r3, r1, #15, #5
 790 0110 4363     		str	r3, [r0, #52]
 417:./libraries/drivers/src/at32f413_adc.c ****     case 5:
 791              		.loc 1 417 7 is_stmt 1 view .LVU178
 792 0112 EDE7     		b	.L31
 793              	.L65:
 419:./libraries/drivers/src/at32f413_adc.c ****       break;
 794              		.loc 1 419 7 view .LVU179
 419:./libraries/drivers/src/at32f413_adc.c ****       break;
 795              		.loc 1 419 28 is_stmt 0 view .LVU180
 796 0114 436B     		ldr	r3, [r0, #52]
 797 0116 61F31853 		bfi	r3, r1, #20, #5
 798 011a 4363     		str	r3, [r0, #52]
 420:./libraries/drivers/src/at32f413_adc.c ****     case 6:
 799              		.loc 1 420 7 is_stmt 1 view .LVU181
 800 011c E8E7     		b	.L31
 801              	.L64:
 422:./libraries/drivers/src/at32f413_adc.c ****       break;
 802              		.loc 1 422 7 view .LVU182
 422:./libraries/drivers/src/at32f413_adc.c ****       break;
 803              		.loc 1 422 28 is_stmt 0 view .LVU183
 804 011e 436B     		ldr	r3, [r0, #52]
 805 0120 61F35D63 		bfi	r3, r1, #25, #5
 806 0124 4363     		str	r3, [r0, #52]
 423:./libraries/drivers/src/at32f413_adc.c ****     case 7:
 807              		.loc 1 423 7 is_stmt 1 view .LVU184
 808 0126 E3E7     		b	.L31
ARM GAS  C:\Users\J\AppData\Local\Temp\cco2cDAd.s 			page 24


 809              	.L63:
 425:./libraries/drivers/src/at32f413_adc.c ****       break;
 810              		.loc 1 425 7 view .LVU185
 425:./libraries/drivers/src/at32f413_adc.c ****       break;
 811              		.loc 1 425 28 is_stmt 0 view .LVU186
 812 0128 036B     		ldr	r3, [r0, #48]
 813 012a 61F30403 		bfi	r3, r1, #0, #5
 814 012e 0363     		str	r3, [r0, #48]
 426:./libraries/drivers/src/at32f413_adc.c ****     case 8:
 815              		.loc 1 426 7 is_stmt 1 view .LVU187
 816 0130 DEE7     		b	.L31
 817              	.L62:
 428:./libraries/drivers/src/at32f413_adc.c ****       break;
 818              		.loc 1 428 7 view .LVU188
 428:./libraries/drivers/src/at32f413_adc.c ****       break;
 819              		.loc 1 428 28 is_stmt 0 view .LVU189
 820 0132 036B     		ldr	r3, [r0, #48]
 821 0134 61F34913 		bfi	r3, r1, #5, #5
 822 0138 0363     		str	r3, [r0, #48]
 429:./libraries/drivers/src/at32f413_adc.c ****     case 9:
 823              		.loc 1 429 7 is_stmt 1 view .LVU190
 824 013a D9E7     		b	.L31
 825              	.L61:
 431:./libraries/drivers/src/at32f413_adc.c ****       break;
 826              		.loc 1 431 7 view .LVU191
 431:./libraries/drivers/src/at32f413_adc.c ****       break;
 827              		.loc 1 431 28 is_stmt 0 view .LVU192
 828 013c 036B     		ldr	r3, [r0, #48]
 829 013e 61F38E23 		bfi	r3, r1, #10, #5
 830 0142 0363     		str	r3, [r0, #48]
 432:./libraries/drivers/src/at32f413_adc.c ****     case 10:
 831              		.loc 1 432 7 is_stmt 1 view .LVU193
 832 0144 D4E7     		b	.L31
 833              	.L60:
 434:./libraries/drivers/src/at32f413_adc.c ****       break;
 834              		.loc 1 434 7 view .LVU194
 434:./libraries/drivers/src/at32f413_adc.c ****       break;
 835              		.loc 1 434 29 is_stmt 0 view .LVU195
 836 0146 036B     		ldr	r3, [r0, #48]
 837 0148 61F3D333 		bfi	r3, r1, #15, #5
 838 014c 0363     		str	r3, [r0, #48]
 435:./libraries/drivers/src/at32f413_adc.c ****     case 11:
 839              		.loc 1 435 7 is_stmt 1 view .LVU196
 840 014e CFE7     		b	.L31
 841              	.L59:
 437:./libraries/drivers/src/at32f413_adc.c ****       break;
 842              		.loc 1 437 7 view .LVU197
 437:./libraries/drivers/src/at32f413_adc.c ****       break;
 843              		.loc 1 437 29 is_stmt 0 view .LVU198
 844 0150 036B     		ldr	r3, [r0, #48]
 845 0152 61F31853 		bfi	r3, r1, #20, #5
 846 0156 0363     		str	r3, [r0, #48]
 438:./libraries/drivers/src/at32f413_adc.c ****     case 12:
 847              		.loc 1 438 7 is_stmt 1 view .LVU199
 848 0158 CAE7     		b	.L31
 849              	.L58:
 440:./libraries/drivers/src/at32f413_adc.c ****       break;
ARM GAS  C:\Users\J\AppData\Local\Temp\cco2cDAd.s 			page 25


 850              		.loc 1 440 7 view .LVU200
 440:./libraries/drivers/src/at32f413_adc.c ****       break;
 851              		.loc 1 440 29 is_stmt 0 view .LVU201
 852 015a 036B     		ldr	r3, [r0, #48]
 853 015c 61F35D63 		bfi	r3, r1, #25, #5
 854 0160 0363     		str	r3, [r0, #48]
 441:./libraries/drivers/src/at32f413_adc.c ****     case 13:
 855              		.loc 1 441 7 is_stmt 1 view .LVU202
 856 0162 C5E7     		b	.L31
 857              	.L57:
 443:./libraries/drivers/src/at32f413_adc.c ****       break;
 858              		.loc 1 443 7 view .LVU203
 443:./libraries/drivers/src/at32f413_adc.c ****       break;
 859              		.loc 1 443 29 is_stmt 0 view .LVU204
 860 0164 C36A     		ldr	r3, [r0, #44]
 861 0166 61F30403 		bfi	r3, r1, #0, #5
 862 016a C362     		str	r3, [r0, #44]
 444:./libraries/drivers/src/at32f413_adc.c ****     case 14:
 863              		.loc 1 444 7 is_stmt 1 view .LVU205
 864 016c C0E7     		b	.L31
 865              	.L56:
 446:./libraries/drivers/src/at32f413_adc.c ****       break;
 866              		.loc 1 446 7 view .LVU206
 446:./libraries/drivers/src/at32f413_adc.c ****       break;
 867              		.loc 1 446 29 is_stmt 0 view .LVU207
 868 016e C36A     		ldr	r3, [r0, #44]
 869 0170 61F34913 		bfi	r3, r1, #5, #5
 870 0174 C362     		str	r3, [r0, #44]
 447:./libraries/drivers/src/at32f413_adc.c ****     case 15:
 871              		.loc 1 447 7 is_stmt 1 view .LVU208
 872 0176 BBE7     		b	.L31
 873              	.L55:
 449:./libraries/drivers/src/at32f413_adc.c ****       break;
 874              		.loc 1 449 7 view .LVU209
 449:./libraries/drivers/src/at32f413_adc.c ****       break;
 875              		.loc 1 449 29 is_stmt 0 view .LVU210
 876 0178 C36A     		ldr	r3, [r0, #44]
 877 017a 61F38E23 		bfi	r3, r1, #10, #5
 878 017e C362     		str	r3, [r0, #44]
 450:./libraries/drivers/src/at32f413_adc.c ****     case 16:
 879              		.loc 1 450 7 is_stmt 1 view .LVU211
 880 0180 B6E7     		b	.L31
 881              	.L53:
 452:./libraries/drivers/src/at32f413_adc.c ****       break;
 882              		.loc 1 452 7 view .LVU212
 452:./libraries/drivers/src/at32f413_adc.c ****       break;
 883              		.loc 1 452 29 is_stmt 0 view .LVU213
 884 0182 C36A     		ldr	r3, [r0, #44]
 885 0184 61F3D333 		bfi	r3, r1, #15, #5
 886 0188 C362     		str	r3, [r0, #44]
 453:./libraries/drivers/src/at32f413_adc.c ****     default:
 887              		.loc 1 453 7 is_stmt 1 view .LVU214
 888              		.loc 1 457 1 is_stmt 0 view .LVU215
 889 018a B1E7     		b	.L31
 890              		.cfi_endproc
 891              	.LFE147:
 893              		.section	.text.adc_preempt_channel_length_set,"ax",%progbits
ARM GAS  C:\Users\J\AppData\Local\Temp\cco2cDAd.s 			page 26


 894              		.align	1
 895              		.global	adc_preempt_channel_length_set
 896              		.syntax unified
 897              		.thumb
 898              		.thumb_func
 899              		.fpu fpv4-sp-d16
 901              	adc_preempt_channel_length_set:
 902              	.LVL36:
 903              	.LFB148:
 458:./libraries/drivers/src/at32f413_adc.c **** 
 459:./libraries/drivers/src/at32f413_adc.c **** /**
 460:./libraries/drivers/src/at32f413_adc.c ****   * @brief  set preempt channel lenghth of the specified adc peripheral.
 461:./libraries/drivers/src/at32f413_adc.c ****   * @param  adc_x: select the adc peripheral.
 462:./libraries/drivers/src/at32f413_adc.c ****   *         this parameter can be one of the following values:
 463:./libraries/drivers/src/at32f413_adc.c ****   *         ADC1, ADC2.
 464:./libraries/drivers/src/at32f413_adc.c ****   * @param  adc_channel_lenght: set the adc preempt channel lenghth.
 465:./libraries/drivers/src/at32f413_adc.c ****   *         this parameter can be:
 466:./libraries/drivers/src/at32f413_adc.c ****   *         - (0x1~0x4)
 467:./libraries/drivers/src/at32f413_adc.c ****   * @retval none
 468:./libraries/drivers/src/at32f413_adc.c ****   */
 469:./libraries/drivers/src/at32f413_adc.c **** void adc_preempt_channel_length_set(adc_type *adc_x, uint8_t adc_channel_lenght)
 470:./libraries/drivers/src/at32f413_adc.c **** {
 904              		.loc 1 470 1 is_stmt 1 view -0
 905              		.cfi_startproc
 906              		@ args = 0, pretend = 0, frame = 0
 907              		@ frame_needed = 0, uses_anonymous_args = 0
 908              		@ link register save eliminated.
 471:./libraries/drivers/src/at32f413_adc.c ****   adc_x->psq_bit.pclen =  adc_channel_lenght - 1;
 909              		.loc 1 471 3 view .LVU217
 910              		.loc 1 471 46 is_stmt 0 view .LVU218
 911 0000 0139     		subs	r1, r1, #1
 912              	.LVL37:
 913              		.loc 1 471 24 view .LVU219
 914 0002 836B     		ldr	r3, [r0, #56]
 915 0004 61F31553 		bfi	r3, r1, #20, #2
 916 0008 8363     		str	r3, [r0, #56]
 472:./libraries/drivers/src/at32f413_adc.c **** }
 917              		.loc 1 472 1 view .LVU220
 918 000a 7047     		bx	lr
 919              		.cfi_endproc
 920              	.LFE148:
 922              		.section	.text.adc_preempt_channel_set,"ax",%progbits
 923              		.align	1
 924              		.global	adc_preempt_channel_set
 925              		.syntax unified
 926              		.thumb
 927              		.thumb_func
 928              		.fpu fpv4-sp-d16
 930              	adc_preempt_channel_set:
 931              	.LVL38:
 932              	.LFB149:
 473:./libraries/drivers/src/at32f413_adc.c **** 
 474:./libraries/drivers/src/at32f413_adc.c **** /**
 475:./libraries/drivers/src/at32f413_adc.c ****   * @brief  configure preempt channel's corresponding rank in the sequencer and sample time of the 
 476:./libraries/drivers/src/at32f413_adc.c ****   * @param  adc_x: select the adc peripheral.
 477:./libraries/drivers/src/at32f413_adc.c ****   *         this parameter can be one of the following values:
 478:./libraries/drivers/src/at32f413_adc.c ****   *         ADC1, ADC2.
ARM GAS  C:\Users\J\AppData\Local\Temp\cco2cDAd.s 			page 27


 479:./libraries/drivers/src/at32f413_adc.c ****   * @param  adc_channel: select the channel.
 480:./libraries/drivers/src/at32f413_adc.c ****   *         this parameter can be one of the following values:
 481:./libraries/drivers/src/at32f413_adc.c ****   *         - ADC_CHANNEL_0    - ADC_CHANNEL_1    - ADC_CHANNEL_2    - ADC_CHANNEL_3
 482:./libraries/drivers/src/at32f413_adc.c ****   *         - ADC_CHANNEL_4    - ADC_CHANNEL_5    - ADC_CHANNEL_6    - ADC_CHANNEL_7
 483:./libraries/drivers/src/at32f413_adc.c ****   *         - ADC_CHANNEL_8    - ADC_CHANNEL_9    - ADC_CHANNEL_10   - ADC_CHANNEL_11
 484:./libraries/drivers/src/at32f413_adc.c ****   *         - ADC_CHANNEL_12   - ADC_CHANNEL_13   - ADC_CHANNEL_14   - ADC_CHANNEL_15
 485:./libraries/drivers/src/at32f413_adc.c ****   *         - ADC_CHANNEL_16   - ADC_CHANNEL_17
 486:./libraries/drivers/src/at32f413_adc.c ****   * @param  adc_sequence: set rank in the preempt group sequencer.
 487:./libraries/drivers/src/at32f413_adc.c ****   *         this parameter must be:
 488:./libraries/drivers/src/at32f413_adc.c ****   *         - between 1 to 4
 489:./libraries/drivers/src/at32f413_adc.c ****   * @param  adc_sampletime: config the sampletime of adc channel.
 490:./libraries/drivers/src/at32f413_adc.c ****   *         this parameter can be one of the following values:
 491:./libraries/drivers/src/at32f413_adc.c ****   *         - ADC_SAMPLETIME_1_5
 492:./libraries/drivers/src/at32f413_adc.c ****   *         - ADC_SAMPLETIME_7_5
 493:./libraries/drivers/src/at32f413_adc.c ****   *         - ADC_SAMPLETIME_13_5
 494:./libraries/drivers/src/at32f413_adc.c ****   *         - ADC_SAMPLETIME_28_5
 495:./libraries/drivers/src/at32f413_adc.c ****   *         - ADC_SAMPLETIME_41_5
 496:./libraries/drivers/src/at32f413_adc.c ****   *         - ADC_SAMPLETIME_55_5
 497:./libraries/drivers/src/at32f413_adc.c ****   *         - ADC_SAMPLETIME_71_5
 498:./libraries/drivers/src/at32f413_adc.c ****   *         - ADC_SAMPLETIME_239_5
 499:./libraries/drivers/src/at32f413_adc.c ****   * @retval none
 500:./libraries/drivers/src/at32f413_adc.c ****   */
 501:./libraries/drivers/src/at32f413_adc.c **** void adc_preempt_channel_set(adc_type *adc_x, adc_channel_select_type adc_channel, uint8_t adc_sequ
 502:./libraries/drivers/src/at32f413_adc.c **** {
 933              		.loc 1 502 1 is_stmt 1 view -0
 934              		.cfi_startproc
 935              		@ args = 0, pretend = 0, frame = 0
 936              		@ frame_needed = 0, uses_anonymous_args = 0
 937              		@ link register save eliminated.
 938              		.loc 1 502 1 is_stmt 0 view .LVU222
 939 0000 10B4     		push	{r4}
 940              	.LCFI4:
 941              		.cfi_def_cfa_offset 4
 942              		.cfi_offset 4, -4
 503:./libraries/drivers/src/at32f413_adc.c ****   uint16_t sequence_index=0;
 943              		.loc 1 503 3 is_stmt 1 view .LVU223
 944              	.LVL39:
 504:./libraries/drivers/src/at32f413_adc.c ****   switch(adc_channel)
 945              		.loc 1 504 3 view .LVU224
 946 0002 1129     		cmp	r1, #17
 947 0004 0ED8     		bhi	.L73
 948 0006 DFE801F0 		tbb	[pc, r1]
 949              	.L75:
 950 000a 09       		.byte	(.L92-.L75)/2
 951 000b 1B       		.byte	(.L91-.L75)/2
 952 000c 20       		.byte	(.L90-.L75)/2
 953 000d 25       		.byte	(.L89-.L75)/2
 954 000e 2A       		.byte	(.L88-.L75)/2
 955 000f 2F       		.byte	(.L87-.L75)/2
 956 0010 34       		.byte	(.L86-.L75)/2
 957 0011 39       		.byte	(.L85-.L75)/2
 958 0012 3E       		.byte	(.L84-.L75)/2
 959 0013 43       		.byte	(.L83-.L75)/2
 960 0014 48       		.byte	(.L82-.L75)/2
 961 0015 4D       		.byte	(.L81-.L75)/2
 962 0016 52       		.byte	(.L80-.L75)/2
 963 0017 57       		.byte	(.L79-.L75)/2
ARM GAS  C:\Users\J\AppData\Local\Temp\cco2cDAd.s 			page 28


 964 0018 5C       		.byte	(.L78-.L75)/2
 965 0019 61       		.byte	(.L77-.L75)/2
 966 001a 66       		.byte	(.L76-.L75)/2
 967 001b 6B       		.byte	(.L74-.L75)/2
 968              		.p2align 1
 969              	.L92:
 505:./libraries/drivers/src/at32f413_adc.c ****   {
 506:./libraries/drivers/src/at32f413_adc.c ****     case ADC_CHANNEL_0:
 507:./libraries/drivers/src/at32f413_adc.c ****       adc_x->spt2_bit.cspt0 = adc_sampletime;
 970              		.loc 1 507 7 view .LVU225
 971              		.loc 1 507 29 is_stmt 0 view .LVU226
 972 001c 0469     		ldr	r4, [r0, #16]
 973 001e 63F30204 		bfi	r4, r3, #0, #3
 974 0022 0461     		str	r4, [r0, #16]
 508:./libraries/drivers/src/at32f413_adc.c ****       break;
 975              		.loc 1 508 7 is_stmt 1 view .LVU227
 976              	.L73:
 509:./libraries/drivers/src/at32f413_adc.c ****     case ADC_CHANNEL_1:
 510:./libraries/drivers/src/at32f413_adc.c ****       adc_x->spt2_bit.cspt1 = adc_sampletime;
 511:./libraries/drivers/src/at32f413_adc.c ****       break;
 512:./libraries/drivers/src/at32f413_adc.c ****     case ADC_CHANNEL_2:
 513:./libraries/drivers/src/at32f413_adc.c ****       adc_x->spt2_bit.cspt2 = adc_sampletime;
 514:./libraries/drivers/src/at32f413_adc.c ****       break;
 515:./libraries/drivers/src/at32f413_adc.c ****     case ADC_CHANNEL_3:
 516:./libraries/drivers/src/at32f413_adc.c ****       adc_x->spt2_bit.cspt3 = adc_sampletime;
 517:./libraries/drivers/src/at32f413_adc.c ****       break;
 518:./libraries/drivers/src/at32f413_adc.c ****     case ADC_CHANNEL_4:
 519:./libraries/drivers/src/at32f413_adc.c ****       adc_x->spt2_bit.cspt4 = adc_sampletime;
 520:./libraries/drivers/src/at32f413_adc.c ****       break;
 521:./libraries/drivers/src/at32f413_adc.c ****     case ADC_CHANNEL_5:
 522:./libraries/drivers/src/at32f413_adc.c ****       adc_x->spt2_bit.cspt5 = adc_sampletime;
 523:./libraries/drivers/src/at32f413_adc.c ****       break;
 524:./libraries/drivers/src/at32f413_adc.c ****     case ADC_CHANNEL_6:
 525:./libraries/drivers/src/at32f413_adc.c ****       adc_x->spt2_bit.cspt6 = adc_sampletime;
 526:./libraries/drivers/src/at32f413_adc.c ****       break;
 527:./libraries/drivers/src/at32f413_adc.c ****     case ADC_CHANNEL_7:
 528:./libraries/drivers/src/at32f413_adc.c ****       adc_x->spt2_bit.cspt7 = adc_sampletime;
 529:./libraries/drivers/src/at32f413_adc.c ****       break;
 530:./libraries/drivers/src/at32f413_adc.c ****     case ADC_CHANNEL_8:
 531:./libraries/drivers/src/at32f413_adc.c ****       adc_x->spt2_bit.cspt8 = adc_sampletime;
 532:./libraries/drivers/src/at32f413_adc.c ****       break;
 533:./libraries/drivers/src/at32f413_adc.c ****     case ADC_CHANNEL_9:
 534:./libraries/drivers/src/at32f413_adc.c ****       adc_x->spt2_bit.cspt9 = adc_sampletime;
 535:./libraries/drivers/src/at32f413_adc.c ****       break;
 536:./libraries/drivers/src/at32f413_adc.c ****     case ADC_CHANNEL_10:
 537:./libraries/drivers/src/at32f413_adc.c ****       adc_x->spt1_bit.cspt10 = adc_sampletime;
 538:./libraries/drivers/src/at32f413_adc.c ****       break;
 539:./libraries/drivers/src/at32f413_adc.c ****     case ADC_CHANNEL_11:
 540:./libraries/drivers/src/at32f413_adc.c ****       adc_x->spt1_bit.cspt11 = adc_sampletime;
 541:./libraries/drivers/src/at32f413_adc.c ****       break;
 542:./libraries/drivers/src/at32f413_adc.c ****     case ADC_CHANNEL_12:
 543:./libraries/drivers/src/at32f413_adc.c ****       adc_x->spt1_bit.cspt12 = adc_sampletime;
 544:./libraries/drivers/src/at32f413_adc.c ****       break;
 545:./libraries/drivers/src/at32f413_adc.c ****     case ADC_CHANNEL_13:
 546:./libraries/drivers/src/at32f413_adc.c ****       adc_x->spt1_bit.cspt13 = adc_sampletime;
 547:./libraries/drivers/src/at32f413_adc.c ****       break;
 548:./libraries/drivers/src/at32f413_adc.c ****     case ADC_CHANNEL_14:
ARM GAS  C:\Users\J\AppData\Local\Temp\cco2cDAd.s 			page 29


 549:./libraries/drivers/src/at32f413_adc.c ****       adc_x->spt1_bit.cspt14 = adc_sampletime;
 550:./libraries/drivers/src/at32f413_adc.c ****       break;
 551:./libraries/drivers/src/at32f413_adc.c ****     case ADC_CHANNEL_15:
 552:./libraries/drivers/src/at32f413_adc.c ****       adc_x->spt1_bit.cspt15 = adc_sampletime;
 553:./libraries/drivers/src/at32f413_adc.c ****       break;
 554:./libraries/drivers/src/at32f413_adc.c ****     case ADC_CHANNEL_16:
 555:./libraries/drivers/src/at32f413_adc.c ****       adc_x->spt1_bit.cspt16 = adc_sampletime;
 556:./libraries/drivers/src/at32f413_adc.c ****       break;
 557:./libraries/drivers/src/at32f413_adc.c ****     case ADC_CHANNEL_17:
 558:./libraries/drivers/src/at32f413_adc.c ****       adc_x->spt1_bit.cspt17 = adc_sampletime;
 559:./libraries/drivers/src/at32f413_adc.c ****       break;
 560:./libraries/drivers/src/at32f413_adc.c ****     default:
 561:./libraries/drivers/src/at32f413_adc.c ****       break;
 562:./libraries/drivers/src/at32f413_adc.c ****   }
 563:./libraries/drivers/src/at32f413_adc.c ****   sequence_index = adc_sequence + 3 - adc_x->psq_bit.pclen;
 977              		.loc 1 563 3 view .LVU228
 978              		.loc 1 563 53 is_stmt 0 view .LVU229
 979 0024 836B     		ldr	r3, [r0, #56]
 980              	.LVL40:
 981              		.loc 1 563 53 view .LVU230
 982 0026 C3F30153 		ubfx	r3, r3, #20, #2
 983              		.loc 1 563 37 view .LVU231
 984 002a D31A     		subs	r3, r2, r3
 985 002c 9BB2     		uxth	r3, r3
 986              		.loc 1 563 18 view .LVU232
 987 002e 0333     		adds	r3, r3, #3
 988 0030 9BB2     		uxth	r3, r3
 989              	.LVL41:
 564:./libraries/drivers/src/at32f413_adc.c ****   switch(sequence_index)
 990              		.loc 1 564 3 is_stmt 1 view .LVU233
 991 0032 013B     		subs	r3, r3, #1
 992              	.LVL42:
 993              		.loc 1 564 3 is_stmt 0 view .LVU234
 994 0034 032B     		cmp	r3, #3
 995 0036 5CD8     		bhi	.L72
 996 0038 DFE803F0 		tbb	[pc, r3]
 997              	.LVL43:
 998              	.L95:
 999 003c 57       		.byte	(.L98-.L95)/2
 1000 003d 5E       		.byte	(.L97-.L95)/2
 1001 003e 63       		.byte	(.L96-.L95)/2
 1002 003f 68       		.byte	(.L94-.L95)/2
 1003              		.p2align 1
 1004              	.L91:
 510:./libraries/drivers/src/at32f413_adc.c ****       break;
 1005              		.loc 1 510 7 is_stmt 1 view .LVU235
 510:./libraries/drivers/src/at32f413_adc.c ****       break;
 1006              		.loc 1 510 29 is_stmt 0 view .LVU236
 1007 0040 0469     		ldr	r4, [r0, #16]
 1008 0042 63F3C504 		bfi	r4, r3, #3, #3
 1009 0046 0461     		str	r4, [r0, #16]
 511:./libraries/drivers/src/at32f413_adc.c ****     case ADC_CHANNEL_2:
 1010              		.loc 1 511 7 is_stmt 1 view .LVU237
 1011 0048 ECE7     		b	.L73
 1012              	.L90:
 513:./libraries/drivers/src/at32f413_adc.c ****       break;
 1013              		.loc 1 513 7 view .LVU238
ARM GAS  C:\Users\J\AppData\Local\Temp\cco2cDAd.s 			page 30


 513:./libraries/drivers/src/at32f413_adc.c ****       break;
 1014              		.loc 1 513 29 is_stmt 0 view .LVU239
 1015 004a 0469     		ldr	r4, [r0, #16]
 1016 004c 63F38814 		bfi	r4, r3, #6, #3
 1017 0050 0461     		str	r4, [r0, #16]
 514:./libraries/drivers/src/at32f413_adc.c ****     case ADC_CHANNEL_3:
 1018              		.loc 1 514 7 is_stmt 1 view .LVU240
 1019 0052 E7E7     		b	.L73
 1020              	.L89:
 516:./libraries/drivers/src/at32f413_adc.c ****       break;
 1021              		.loc 1 516 7 view .LVU241
 516:./libraries/drivers/src/at32f413_adc.c ****       break;
 1022              		.loc 1 516 29 is_stmt 0 view .LVU242
 1023 0054 0469     		ldr	r4, [r0, #16]
 1024 0056 63F34B24 		bfi	r4, r3, #9, #3
 1025 005a 0461     		str	r4, [r0, #16]
 517:./libraries/drivers/src/at32f413_adc.c ****     case ADC_CHANNEL_4:
 1026              		.loc 1 517 7 is_stmt 1 view .LVU243
 1027 005c E2E7     		b	.L73
 1028              	.L88:
 519:./libraries/drivers/src/at32f413_adc.c ****       break;
 1029              		.loc 1 519 7 view .LVU244
 519:./libraries/drivers/src/at32f413_adc.c ****       break;
 1030              		.loc 1 519 29 is_stmt 0 view .LVU245
 1031 005e 0469     		ldr	r4, [r0, #16]
 1032 0060 63F30E34 		bfi	r4, r3, #12, #3
 1033 0064 0461     		str	r4, [r0, #16]
 520:./libraries/drivers/src/at32f413_adc.c ****     case ADC_CHANNEL_5:
 1034              		.loc 1 520 7 is_stmt 1 view .LVU246
 1035 0066 DDE7     		b	.L73
 1036              	.L87:
 522:./libraries/drivers/src/at32f413_adc.c ****       break;
 1037              		.loc 1 522 7 view .LVU247
 522:./libraries/drivers/src/at32f413_adc.c ****       break;
 1038              		.loc 1 522 29 is_stmt 0 view .LVU248
 1039 0068 0469     		ldr	r4, [r0, #16]
 1040 006a 63F3D134 		bfi	r4, r3, #15, #3
 1041 006e 0461     		str	r4, [r0, #16]
 523:./libraries/drivers/src/at32f413_adc.c ****     case ADC_CHANNEL_6:
 1042              		.loc 1 523 7 is_stmt 1 view .LVU249
 1043 0070 D8E7     		b	.L73
 1044              	.L86:
 525:./libraries/drivers/src/at32f413_adc.c ****       break;
 1045              		.loc 1 525 7 view .LVU250
 525:./libraries/drivers/src/at32f413_adc.c ****       break;
 1046              		.loc 1 525 29 is_stmt 0 view .LVU251
 1047 0072 0469     		ldr	r4, [r0, #16]
 1048 0074 63F39444 		bfi	r4, r3, #18, #3
 1049 0078 0461     		str	r4, [r0, #16]
 526:./libraries/drivers/src/at32f413_adc.c ****     case ADC_CHANNEL_7:
 1050              		.loc 1 526 7 is_stmt 1 view .LVU252
 1051 007a D3E7     		b	.L73
 1052              	.L85:
 528:./libraries/drivers/src/at32f413_adc.c ****       break;
 1053              		.loc 1 528 7 view .LVU253
 528:./libraries/drivers/src/at32f413_adc.c ****       break;
 1054              		.loc 1 528 29 is_stmt 0 view .LVU254
ARM GAS  C:\Users\J\AppData\Local\Temp\cco2cDAd.s 			page 31


 1055 007c 0469     		ldr	r4, [r0, #16]
 1056 007e 63F35754 		bfi	r4, r3, #21, #3
 1057 0082 0461     		str	r4, [r0, #16]
 529:./libraries/drivers/src/at32f413_adc.c ****     case ADC_CHANNEL_8:
 1058              		.loc 1 529 7 is_stmt 1 view .LVU255
 1059 0084 CEE7     		b	.L73
 1060              	.L84:
 531:./libraries/drivers/src/at32f413_adc.c ****       break;
 1061              		.loc 1 531 7 view .LVU256
 531:./libraries/drivers/src/at32f413_adc.c ****       break;
 1062              		.loc 1 531 29 is_stmt 0 view .LVU257
 1063 0086 0469     		ldr	r4, [r0, #16]
 1064 0088 63F31A64 		bfi	r4, r3, #24, #3
 1065 008c 0461     		str	r4, [r0, #16]
 532:./libraries/drivers/src/at32f413_adc.c ****     case ADC_CHANNEL_9:
 1066              		.loc 1 532 7 is_stmt 1 view .LVU258
 1067 008e C9E7     		b	.L73
 1068              	.L83:
 534:./libraries/drivers/src/at32f413_adc.c ****       break;
 1069              		.loc 1 534 7 view .LVU259
 534:./libraries/drivers/src/at32f413_adc.c ****       break;
 1070              		.loc 1 534 29 is_stmt 0 view .LVU260
 1071 0090 0469     		ldr	r4, [r0, #16]
 1072 0092 63F3DD64 		bfi	r4, r3, #27, #3
 1073 0096 0461     		str	r4, [r0, #16]
 535:./libraries/drivers/src/at32f413_adc.c ****     case ADC_CHANNEL_10:
 1074              		.loc 1 535 7 is_stmt 1 view .LVU261
 1075 0098 C4E7     		b	.L73
 1076              	.L82:
 537:./libraries/drivers/src/at32f413_adc.c ****       break;
 1077              		.loc 1 537 7 view .LVU262
 537:./libraries/drivers/src/at32f413_adc.c ****       break;
 1078              		.loc 1 537 30 is_stmt 0 view .LVU263
 1079 009a C468     		ldr	r4, [r0, #12]
 1080 009c 63F30204 		bfi	r4, r3, #0, #3
 1081 00a0 C460     		str	r4, [r0, #12]
 538:./libraries/drivers/src/at32f413_adc.c ****     case ADC_CHANNEL_11:
 1082              		.loc 1 538 7 is_stmt 1 view .LVU264
 1083 00a2 BFE7     		b	.L73
 1084              	.L81:
 540:./libraries/drivers/src/at32f413_adc.c ****       break;
 1085              		.loc 1 540 7 view .LVU265
 540:./libraries/drivers/src/at32f413_adc.c ****       break;
 1086              		.loc 1 540 30 is_stmt 0 view .LVU266
 1087 00a4 C468     		ldr	r4, [r0, #12]
 1088 00a6 63F3C504 		bfi	r4, r3, #3, #3
 1089 00aa C460     		str	r4, [r0, #12]
 541:./libraries/drivers/src/at32f413_adc.c ****     case ADC_CHANNEL_12:
 1090              		.loc 1 541 7 is_stmt 1 view .LVU267
 1091 00ac BAE7     		b	.L73
 1092              	.L80:
 543:./libraries/drivers/src/at32f413_adc.c ****       break;
 1093              		.loc 1 543 7 view .LVU268
 543:./libraries/drivers/src/at32f413_adc.c ****       break;
 1094              		.loc 1 543 30 is_stmt 0 view .LVU269
 1095 00ae C468     		ldr	r4, [r0, #12]
 1096 00b0 63F38814 		bfi	r4, r3, #6, #3
ARM GAS  C:\Users\J\AppData\Local\Temp\cco2cDAd.s 			page 32


 1097 00b4 C460     		str	r4, [r0, #12]
 544:./libraries/drivers/src/at32f413_adc.c ****     case ADC_CHANNEL_13:
 1098              		.loc 1 544 7 is_stmt 1 view .LVU270
 1099 00b6 B5E7     		b	.L73
 1100              	.L79:
 546:./libraries/drivers/src/at32f413_adc.c ****       break;
 1101              		.loc 1 546 7 view .LVU271
 546:./libraries/drivers/src/at32f413_adc.c ****       break;
 1102              		.loc 1 546 30 is_stmt 0 view .LVU272
 1103 00b8 C468     		ldr	r4, [r0, #12]
 1104 00ba 63F34B24 		bfi	r4, r3, #9, #3
 1105 00be C460     		str	r4, [r0, #12]
 547:./libraries/drivers/src/at32f413_adc.c ****     case ADC_CHANNEL_14:
 1106              		.loc 1 547 7 is_stmt 1 view .LVU273
 1107 00c0 B0E7     		b	.L73
 1108              	.L78:
 549:./libraries/drivers/src/at32f413_adc.c ****       break;
 1109              		.loc 1 549 7 view .LVU274
 549:./libraries/drivers/src/at32f413_adc.c ****       break;
 1110              		.loc 1 549 30 is_stmt 0 view .LVU275
 1111 00c2 C468     		ldr	r4, [r0, #12]
 1112 00c4 63F30E34 		bfi	r4, r3, #12, #3
 1113 00c8 C460     		str	r4, [r0, #12]
 550:./libraries/drivers/src/at32f413_adc.c ****     case ADC_CHANNEL_15:
 1114              		.loc 1 550 7 is_stmt 1 view .LVU276
 1115 00ca ABE7     		b	.L73
 1116              	.L77:
 552:./libraries/drivers/src/at32f413_adc.c ****       break;
 1117              		.loc 1 552 7 view .LVU277
 552:./libraries/drivers/src/at32f413_adc.c ****       break;
 1118              		.loc 1 552 30 is_stmt 0 view .LVU278
 1119 00cc C468     		ldr	r4, [r0, #12]
 1120 00ce 63F3D134 		bfi	r4, r3, #15, #3
 1121 00d2 C460     		str	r4, [r0, #12]
 553:./libraries/drivers/src/at32f413_adc.c ****     case ADC_CHANNEL_16:
 1122              		.loc 1 553 7 is_stmt 1 view .LVU279
 1123 00d4 A6E7     		b	.L73
 1124              	.L76:
 555:./libraries/drivers/src/at32f413_adc.c ****       break;
 1125              		.loc 1 555 7 view .LVU280
 555:./libraries/drivers/src/at32f413_adc.c ****       break;
 1126              		.loc 1 555 30 is_stmt 0 view .LVU281
 1127 00d6 C468     		ldr	r4, [r0, #12]
 1128 00d8 63F39444 		bfi	r4, r3, #18, #3
 1129 00dc C460     		str	r4, [r0, #12]
 556:./libraries/drivers/src/at32f413_adc.c ****     case ADC_CHANNEL_17:
 1130              		.loc 1 556 7 is_stmt 1 view .LVU282
 1131 00de A1E7     		b	.L73
 1132              	.L74:
 558:./libraries/drivers/src/at32f413_adc.c ****       break;
 1133              		.loc 1 558 7 view .LVU283
 558:./libraries/drivers/src/at32f413_adc.c ****       break;
 1134              		.loc 1 558 30 is_stmt 0 view .LVU284
 1135 00e0 C468     		ldr	r4, [r0, #12]
 1136 00e2 63F35754 		bfi	r4, r3, #21, #3
 1137 00e6 C460     		str	r4, [r0, #12]
 559:./libraries/drivers/src/at32f413_adc.c ****     default:
ARM GAS  C:\Users\J\AppData\Local\Temp\cco2cDAd.s 			page 33


 1138              		.loc 1 559 7 is_stmt 1 view .LVU285
 1139 00e8 9CE7     		b	.L73
 1140              	.LVL44:
 1141              	.L98:
 565:./libraries/drivers/src/at32f413_adc.c ****   {
 566:./libraries/drivers/src/at32f413_adc.c ****     case 1:
 567:./libraries/drivers/src/at32f413_adc.c ****       adc_x->psq_bit.psn1 = adc_channel;
 1142              		.loc 1 567 7 view .LVU286
 1143              		.loc 1 567 27 is_stmt 0 view .LVU287
 1144 00ea 836B     		ldr	r3, [r0, #56]
 1145              	.LVL45:
 1146              		.loc 1 567 27 view .LVU288
 1147 00ec 61F30403 		bfi	r3, r1, #0, #5
 1148 00f0 8363     		str	r3, [r0, #56]
 568:./libraries/drivers/src/at32f413_adc.c ****       break;
 1149              		.loc 1 568 7 is_stmt 1 view .LVU289
 1150              	.L72:
 569:./libraries/drivers/src/at32f413_adc.c ****     case 2:
 570:./libraries/drivers/src/at32f413_adc.c ****       adc_x->psq_bit.psn2 = adc_channel;
 571:./libraries/drivers/src/at32f413_adc.c ****       break;
 572:./libraries/drivers/src/at32f413_adc.c ****     case 3:
 573:./libraries/drivers/src/at32f413_adc.c ****       adc_x->psq_bit.psn3 = adc_channel;
 574:./libraries/drivers/src/at32f413_adc.c ****       break;
 575:./libraries/drivers/src/at32f413_adc.c ****     case 4:
 576:./libraries/drivers/src/at32f413_adc.c ****       adc_x->psq_bit.psn4 = adc_channel;
 577:./libraries/drivers/src/at32f413_adc.c ****       break;
 578:./libraries/drivers/src/at32f413_adc.c ****     default:
 579:./libraries/drivers/src/at32f413_adc.c ****       break;
 580:./libraries/drivers/src/at32f413_adc.c ****   }
 581:./libraries/drivers/src/at32f413_adc.c **** }
 1151              		.loc 1 581 1 is_stmt 0 view .LVU290
 1152 00f2 5DF8044B 		ldr	r4, [sp], #4
 1153              	.LCFI5:
 1154              		.cfi_remember_state
 1155              		.cfi_restore 4
 1156              		.cfi_def_cfa_offset 0
 1157 00f6 7047     		bx	lr
 1158              	.LVL46:
 1159              	.L97:
 1160              	.LCFI6:
 1161              		.cfi_restore_state
 570:./libraries/drivers/src/at32f413_adc.c ****       break;
 1162              		.loc 1 570 7 is_stmt 1 view .LVU291
 570:./libraries/drivers/src/at32f413_adc.c ****       break;
 1163              		.loc 1 570 27 is_stmt 0 view .LVU292
 1164 00f8 836B     		ldr	r3, [r0, #56]
 1165              	.LVL47:
 570:./libraries/drivers/src/at32f413_adc.c ****       break;
 1166              		.loc 1 570 27 view .LVU293
 1167 00fa 61F34913 		bfi	r3, r1, #5, #5
 1168 00fe 8363     		str	r3, [r0, #56]
 571:./libraries/drivers/src/at32f413_adc.c ****     case 3:
 1169              		.loc 1 571 7 is_stmt 1 view .LVU294
 1170 0100 F7E7     		b	.L72
 1171              	.LVL48:
 1172              	.L96:
 573:./libraries/drivers/src/at32f413_adc.c ****       break;
ARM GAS  C:\Users\J\AppData\Local\Temp\cco2cDAd.s 			page 34


 1173              		.loc 1 573 7 view .LVU295
 573:./libraries/drivers/src/at32f413_adc.c ****       break;
 1174              		.loc 1 573 27 is_stmt 0 view .LVU296
 1175 0102 836B     		ldr	r3, [r0, #56]
 1176              	.LVL49:
 573:./libraries/drivers/src/at32f413_adc.c ****       break;
 1177              		.loc 1 573 27 view .LVU297
 1178 0104 61F38E23 		bfi	r3, r1, #10, #5
 1179 0108 8363     		str	r3, [r0, #56]
 574:./libraries/drivers/src/at32f413_adc.c ****     case 4:
 1180              		.loc 1 574 7 is_stmt 1 view .LVU298
 1181 010a F2E7     		b	.L72
 1182              	.LVL50:
 1183              	.L94:
 576:./libraries/drivers/src/at32f413_adc.c ****       break;
 1184              		.loc 1 576 7 view .LVU299
 576:./libraries/drivers/src/at32f413_adc.c ****       break;
 1185              		.loc 1 576 27 is_stmt 0 view .LVU300
 1186 010c 836B     		ldr	r3, [r0, #56]
 1187              	.LVL51:
 576:./libraries/drivers/src/at32f413_adc.c ****       break;
 1188              		.loc 1 576 27 view .LVU301
 1189 010e 61F3D333 		bfi	r3, r1, #15, #5
 1190 0112 8363     		str	r3, [r0, #56]
 577:./libraries/drivers/src/at32f413_adc.c ****     default:
 1191              		.loc 1 577 7 is_stmt 1 view .LVU302
 1192              		.loc 1 581 1 is_stmt 0 view .LVU303
 1193 0114 EDE7     		b	.L72
 1194              		.cfi_endproc
 1195              	.LFE149:
 1197              		.section	.text.adc_ordinary_conversion_trigger_set,"ax",%progbits
 1198              		.align	1
 1199              		.global	adc_ordinary_conversion_trigger_set
 1200              		.syntax unified
 1201              		.thumb
 1202              		.thumb_func
 1203              		.fpu fpv4-sp-d16
 1205              	adc_ordinary_conversion_trigger_set:
 1206              	.LVL52:
 1207              	.LFB150:
 582:./libraries/drivers/src/at32f413_adc.c **** 
 583:./libraries/drivers/src/at32f413_adc.c **** /**
 584:./libraries/drivers/src/at32f413_adc.c ****   * @brief  enable or disable the ordinary channel's external trigger and
 585:./libraries/drivers/src/at32f413_adc.c ****   *         set external trigger event of the specified adc peripheral.
 586:./libraries/drivers/src/at32f413_adc.c ****   * @param  adc_x: select the adc peripheral.
 587:./libraries/drivers/src/at32f413_adc.c ****   *         this parameter can be one of the following values:
 588:./libraries/drivers/src/at32f413_adc.c ****   *         ADC1, ADC2.
 589:./libraries/drivers/src/at32f413_adc.c ****   * @param  adc_ordinary_trig: select the external trigger event.
 590:./libraries/drivers/src/at32f413_adc.c ****   *         this parameter can be one of the following values:
 591:./libraries/drivers/src/at32f413_adc.c ****   *         adc1 & adc2
 592:./libraries/drivers/src/at32f413_adc.c ****   *         - ADC12_ORDINARY_TRIG_TMR1CH1     - ADC12_ORDINARY_TRIG_TMR1CH2  - ADC12_ORDINARY_TRIG_
 593:./libraries/drivers/src/at32f413_adc.c ****   *         - ADC12_ORDINARY_TRIG_TMR3TRGOUT  - ADC12_ORDINARY_TRIG_TMR4CH4  - ADC12_ORDINARY_TRIG_
 594:./libraries/drivers/src/at32f413_adc.c ****   *         - ADC12_ORDINARY_TRIG_TMR1TRGOUT  - ADC12_ORDINARY_TRIG_TMR8CH1  - ADC12_ORDINARY_TRIG_
 595:./libraries/drivers/src/at32f413_adc.c ****   * @param  new_state: new state of ordinary channel's external trigger.
 596:./libraries/drivers/src/at32f413_adc.c ****   *         this parameter can be: TRUE or FALSE.
 597:./libraries/drivers/src/at32f413_adc.c ****   * @retval none
 598:./libraries/drivers/src/at32f413_adc.c ****   */
ARM GAS  C:\Users\J\AppData\Local\Temp\cco2cDAd.s 			page 35


 599:./libraries/drivers/src/at32f413_adc.c **** void adc_ordinary_conversion_trigger_set(adc_type *adc_x, adc_ordinary_trig_select_type adc_ordinar
 600:./libraries/drivers/src/at32f413_adc.c **** {
 1208              		.loc 1 600 1 is_stmt 1 view -0
 1209              		.cfi_startproc
 1210              		@ args = 0, pretend = 0, frame = 0
 1211              		@ frame_needed = 0, uses_anonymous_args = 0
 1212              		@ link register save eliminated.
 601:./libraries/drivers/src/at32f413_adc.c ****   if(adc_ordinary_trig > 7)
 1213              		.loc 1 601 3 view .LVU305
 1214              		.loc 1 601 5 is_stmt 0 view .LVU306
 1215 0000 0729     		cmp	r1, #7
 1216 0002 0CD9     		bls	.L101
 602:./libraries/drivers/src/at32f413_adc.c ****   {
 603:./libraries/drivers/src/at32f413_adc.c ****     adc_x->ctrl2_bit.octesel_h = 1;
 1217              		.loc 1 603 5 is_stmt 1 view .LVU307
 1218              		.loc 1 603 32 is_stmt 0 view .LVU308
 1219 0004 8368     		ldr	r3, [r0, #8]
 1220 0006 43F00073 		orr	r3, r3, #33554432
 1221 000a 8360     		str	r3, [r0, #8]
 604:./libraries/drivers/src/at32f413_adc.c ****     adc_x->ctrl2_bit.octesel_l = adc_ordinary_trig & 0x7;
 1222              		.loc 1 604 5 is_stmt 1 view .LVU309
 1223              		.loc 1 604 32 is_stmt 0 view .LVU310
 1224 000c 8368     		ldr	r3, [r0, #8]
 1225 000e 61F35343 		bfi	r3, r1, #17, #3
 1226 0012 8360     		str	r3, [r0, #8]
 1227              	.L102:
 605:./libraries/drivers/src/at32f413_adc.c ****   }
 606:./libraries/drivers/src/at32f413_adc.c ****   else
 607:./libraries/drivers/src/at32f413_adc.c ****   {
 608:./libraries/drivers/src/at32f413_adc.c ****     adc_x->ctrl2_bit.octesel_h = 0;
 609:./libraries/drivers/src/at32f413_adc.c ****     adc_x->ctrl2_bit.octesel_l = adc_ordinary_trig & 0x7;
 610:./libraries/drivers/src/at32f413_adc.c ****   }
 611:./libraries/drivers/src/at32f413_adc.c ****   adc_x->ctrl2_bit.octen = new_state;
 1228              		.loc 1 611 3 is_stmt 1 view .LVU311
 1229              		.loc 1 611 26 is_stmt 0 view .LVU312
 1230 0014 8368     		ldr	r3, [r0, #8]
 1231 0016 62F31453 		bfi	r3, r2, #20, #1
 1232 001a 8360     		str	r3, [r0, #8]
 612:./libraries/drivers/src/at32f413_adc.c **** }
 1233              		.loc 1 612 1 view .LVU313
 1234 001c 7047     		bx	lr
 1235              	.L101:
 608:./libraries/drivers/src/at32f413_adc.c ****     adc_x->ctrl2_bit.octesel_l = adc_ordinary_trig & 0x7;
 1236              		.loc 1 608 5 is_stmt 1 view .LVU314
 608:./libraries/drivers/src/at32f413_adc.c ****     adc_x->ctrl2_bit.octesel_l = adc_ordinary_trig & 0x7;
 1237              		.loc 1 608 32 is_stmt 0 view .LVU315
 1238 001e 8368     		ldr	r3, [r0, #8]
 1239 0020 6FF35963 		bfc	r3, #25, #1
 1240 0024 8360     		str	r3, [r0, #8]
 609:./libraries/drivers/src/at32f413_adc.c ****   }
 1241              		.loc 1 609 5 is_stmt 1 view .LVU316
 609:./libraries/drivers/src/at32f413_adc.c ****   }
 1242              		.loc 1 609 32 is_stmt 0 view .LVU317
 1243 0026 8368     		ldr	r3, [r0, #8]
 1244 0028 61F35343 		bfi	r3, r1, #17, #3
 1245 002c 8360     		str	r3, [r0, #8]
 1246 002e F1E7     		b	.L102
ARM GAS  C:\Users\J\AppData\Local\Temp\cco2cDAd.s 			page 36


 1247              		.cfi_endproc
 1248              	.LFE150:
 1250              		.section	.text.adc_preempt_conversion_trigger_set,"ax",%progbits
 1251              		.align	1
 1252              		.global	adc_preempt_conversion_trigger_set
 1253              		.syntax unified
 1254              		.thumb
 1255              		.thumb_func
 1256              		.fpu fpv4-sp-d16
 1258              	adc_preempt_conversion_trigger_set:
 1259              	.LVL53:
 1260              	.LFB151:
 613:./libraries/drivers/src/at32f413_adc.c **** 
 614:./libraries/drivers/src/at32f413_adc.c **** /**
 615:./libraries/drivers/src/at32f413_adc.c ****   * @brief  enable or disable the preempt channel's external trigger and
 616:./libraries/drivers/src/at32f413_adc.c ****   *         set external trigger event of the specified adc peripheral.
 617:./libraries/drivers/src/at32f413_adc.c ****   * @param  adc_x: select the adc peripheral.
 618:./libraries/drivers/src/at32f413_adc.c ****   *         this parameter can be one of the following values:
 619:./libraries/drivers/src/at32f413_adc.c ****   *         ADC1, ADC2.
 620:./libraries/drivers/src/at32f413_adc.c ****   * @param  adc_preempt_trig: select the external trigger event.
 621:./libraries/drivers/src/at32f413_adc.c ****   *         this parameter can be one of the following values:
 622:./libraries/drivers/src/at32f413_adc.c ****   *         adc1 & adc2
 623:./libraries/drivers/src/at32f413_adc.c ****   *         - ADC12_PREEMPT_TRIG_TMR1TRGOUT  - ADC12_PREEMPT_TRIG_TMR1CH4     - ADC12_PREEMPT_TRIG_
 624:./libraries/drivers/src/at32f413_adc.c ****   *         - ADC12_PREEMPT_TRIG_TMR3CH4     - ADC12_PREEMPT_TRIG_TMR4TRGOUT  - ADC12_PREEMPT_TRIG_
 625:./libraries/drivers/src/at32f413_adc.c ****   *         - ADC12_PREEMPT_TRIG_TMR1CH1     - ADC12_PREEMPT_TRIG_TMR8CH1     - ADC12_PREEMPT_TRIG_
 626:./libraries/drivers/src/at32f413_adc.c ****   * @param  new_state: new state of preempt channel's external trigger.
 627:./libraries/drivers/src/at32f413_adc.c ****   *         this parameter can be: TRUE or FALSE.
 628:./libraries/drivers/src/at32f413_adc.c ****   * @retval none
 629:./libraries/drivers/src/at32f413_adc.c ****   */
 630:./libraries/drivers/src/at32f413_adc.c **** void adc_preempt_conversion_trigger_set(adc_type *adc_x, adc_preempt_trig_select_type adc_preempt_t
 631:./libraries/drivers/src/at32f413_adc.c **** {
 1261              		.loc 1 631 1 is_stmt 1 view -0
 1262              		.cfi_startproc
 1263              		@ args = 0, pretend = 0, frame = 0
 1264              		@ frame_needed = 0, uses_anonymous_args = 0
 1265              		@ link register save eliminated.
 632:./libraries/drivers/src/at32f413_adc.c ****   if(adc_preempt_trig > 7)
 1266              		.loc 1 632 3 view .LVU319
 1267              		.loc 1 632 5 is_stmt 0 view .LVU320
 1268 0000 0729     		cmp	r1, #7
 1269 0002 0CD9     		bls	.L104
 633:./libraries/drivers/src/at32f413_adc.c ****   {
 634:./libraries/drivers/src/at32f413_adc.c ****     adc_x->ctrl2_bit.pctesel_h = 1;
 1270              		.loc 1 634 5 is_stmt 1 view .LVU321
 1271              		.loc 1 634 32 is_stmt 0 view .LVU322
 1272 0004 8368     		ldr	r3, [r0, #8]
 1273 0006 43F08073 		orr	r3, r3, #16777216
 1274 000a 8360     		str	r3, [r0, #8]
 635:./libraries/drivers/src/at32f413_adc.c ****     adc_x->ctrl2_bit.pctesel_l = adc_preempt_trig & 0x7;
 1275              		.loc 1 635 5 is_stmt 1 view .LVU323
 1276              		.loc 1 635 32 is_stmt 0 view .LVU324
 1277 000c 8368     		ldr	r3, [r0, #8]
 1278 000e 61F30E33 		bfi	r3, r1, #12, #3
 1279 0012 8360     		str	r3, [r0, #8]
 1280              	.L105:
 636:./libraries/drivers/src/at32f413_adc.c ****   }
 637:./libraries/drivers/src/at32f413_adc.c ****   else
ARM GAS  C:\Users\J\AppData\Local\Temp\cco2cDAd.s 			page 37


 638:./libraries/drivers/src/at32f413_adc.c ****   {
 639:./libraries/drivers/src/at32f413_adc.c ****     adc_x->ctrl2_bit.pctesel_h = 0;
 640:./libraries/drivers/src/at32f413_adc.c ****     adc_x->ctrl2_bit.pctesel_l = adc_preempt_trig & 0x7;
 641:./libraries/drivers/src/at32f413_adc.c ****   }
 642:./libraries/drivers/src/at32f413_adc.c ****   adc_x->ctrl2_bit.pcten = new_state;
 1281              		.loc 1 642 3 is_stmt 1 view .LVU325
 1282              		.loc 1 642 26 is_stmt 0 view .LVU326
 1283 0014 8368     		ldr	r3, [r0, #8]
 1284 0016 62F3CF33 		bfi	r3, r2, #15, #1
 1285 001a 8360     		str	r3, [r0, #8]
 643:./libraries/drivers/src/at32f413_adc.c **** }
 1286              		.loc 1 643 1 view .LVU327
 1287 001c 7047     		bx	lr
 1288              	.L104:
 639:./libraries/drivers/src/at32f413_adc.c ****     adc_x->ctrl2_bit.pctesel_l = adc_preempt_trig & 0x7;
 1289              		.loc 1 639 5 is_stmt 1 view .LVU328
 639:./libraries/drivers/src/at32f413_adc.c ****     adc_x->ctrl2_bit.pctesel_l = adc_preempt_trig & 0x7;
 1290              		.loc 1 639 32 is_stmt 0 view .LVU329
 1291 001e 8368     		ldr	r3, [r0, #8]
 1292 0020 6FF31863 		bfc	r3, #24, #1
 1293 0024 8360     		str	r3, [r0, #8]
 640:./libraries/drivers/src/at32f413_adc.c ****   }
 1294              		.loc 1 640 5 is_stmt 1 view .LVU330
 640:./libraries/drivers/src/at32f413_adc.c ****   }
 1295              		.loc 1 640 32 is_stmt 0 view .LVU331
 1296 0026 8368     		ldr	r3, [r0, #8]
 1297 0028 61F30E33 		bfi	r3, r1, #12, #3
 1298 002c 8360     		str	r3, [r0, #8]
 1299 002e F1E7     		b	.L105
 1300              		.cfi_endproc
 1301              	.LFE151:
 1303              		.section	.text.adc_preempt_offset_value_set,"ax",%progbits
 1304              		.align	1
 1305              		.global	adc_preempt_offset_value_set
 1306              		.syntax unified
 1307              		.thumb
 1308              		.thumb_func
 1309              		.fpu fpv4-sp-d16
 1311              	adc_preempt_offset_value_set:
 1312              	.LVL54:
 1313              	.LFB152:
 644:./libraries/drivers/src/at32f413_adc.c **** 
 645:./libraries/drivers/src/at32f413_adc.c **** 
 646:./libraries/drivers/src/at32f413_adc.c **** /**
 647:./libraries/drivers/src/at32f413_adc.c ****   * @brief  set preempt channel's conversion value offset of the specified adc peripheral.
 648:./libraries/drivers/src/at32f413_adc.c ****   * @param  adc_x: select the adc peripheral.
 649:./libraries/drivers/src/at32f413_adc.c ****   *         this parameter can be one of the following values:
 650:./libraries/drivers/src/at32f413_adc.c ****   *         ADC1, ADC2.
 651:./libraries/drivers/src/at32f413_adc.c ****   * @param  adc_preempt_channel: select the preempt channel.
 652:./libraries/drivers/src/at32f413_adc.c ****   *         this parameter can be one of the following values:
 653:./libraries/drivers/src/at32f413_adc.c ****   *         - ADC_PREEMPT_CHANNEL_1
 654:./libraries/drivers/src/at32f413_adc.c ****   *         - ADC_PREEMPT_CHANNEL_2
 655:./libraries/drivers/src/at32f413_adc.c ****   *         - ADC_PREEMPT_CHANNEL_3
 656:./libraries/drivers/src/at32f413_adc.c ****   *         - ADC_PREEMPT_CHANNEL_4
 657:./libraries/drivers/src/at32f413_adc.c ****   * @param  adc_offset_value: set the adc preempt channel's conversion value offset.
 658:./libraries/drivers/src/at32f413_adc.c ****   *         this parameter can be:
 659:./libraries/drivers/src/at32f413_adc.c ****   *         - (0x000~0xFFF)
ARM GAS  C:\Users\J\AppData\Local\Temp\cco2cDAd.s 			page 38


 660:./libraries/drivers/src/at32f413_adc.c ****   * @retval none
 661:./libraries/drivers/src/at32f413_adc.c ****   */
 662:./libraries/drivers/src/at32f413_adc.c **** void adc_preempt_offset_value_set(adc_type *adc_x, adc_preempt_channel_type adc_preempt_channel, ui
 663:./libraries/drivers/src/at32f413_adc.c **** {
 1314              		.loc 1 663 1 is_stmt 1 view -0
 1315              		.cfi_startproc
 1316              		@ args = 0, pretend = 0, frame = 0
 1317              		@ frame_needed = 0, uses_anonymous_args = 0
 1318              		@ link register save eliminated.
 664:./libraries/drivers/src/at32f413_adc.c ****   switch(adc_preempt_channel)
 1319              		.loc 1 664 3 view .LVU333
 1320 0000 0329     		cmp	r1, #3
 1321 0002 16D8     		bhi	.L106
 1322 0004 DFE801F0 		tbb	[pc, r1]
 1323              	.L109:
 1324 0008 02       		.byte	(.L112-.L109)/2
 1325 0009 07       		.byte	(.L111-.L109)/2
 1326 000a 0C       		.byte	(.L110-.L109)/2
 1327 000b 11       		.byte	(.L108-.L109)/2
 1328              		.p2align 1
 1329              	.L112:
 665:./libraries/drivers/src/at32f413_adc.c ****   {
 666:./libraries/drivers/src/at32f413_adc.c ****     case ADC_PREEMPT_CHANNEL_1:
 667:./libraries/drivers/src/at32f413_adc.c ****       adc_x->pcdto1_bit.pcdto1 = adc_offset_value;
 1330              		.loc 1 667 7 view .LVU334
 1331              		.loc 1 667 32 is_stmt 0 view .LVU335
 1332 000c 4369     		ldr	r3, [r0, #20]
 1333 000e 62F30B03 		bfi	r3, r2, #0, #12
 1334 0012 4361     		str	r3, [r0, #20]
 668:./libraries/drivers/src/at32f413_adc.c ****       break;
 1335              		.loc 1 668 7 is_stmt 1 view .LVU336
 1336 0014 7047     		bx	lr
 1337              	.L111:
 669:./libraries/drivers/src/at32f413_adc.c ****     case ADC_PREEMPT_CHANNEL_2:
 670:./libraries/drivers/src/at32f413_adc.c ****       adc_x->pcdto2_bit.pcdto2 = adc_offset_value;
 1338              		.loc 1 670 7 view .LVU337
 1339              		.loc 1 670 32 is_stmt 0 view .LVU338
 1340 0016 8369     		ldr	r3, [r0, #24]
 1341 0018 62F30B03 		bfi	r3, r2, #0, #12
 1342 001c 8361     		str	r3, [r0, #24]
 671:./libraries/drivers/src/at32f413_adc.c ****       break;
 1343              		.loc 1 671 7 is_stmt 1 view .LVU339
 1344 001e 7047     		bx	lr
 1345              	.L110:
 672:./libraries/drivers/src/at32f413_adc.c ****     case ADC_PREEMPT_CHANNEL_3:
 673:./libraries/drivers/src/at32f413_adc.c ****       adc_x->pcdto3_bit.pcdto3 = adc_offset_value;
 1346              		.loc 1 673 7 view .LVU340
 1347              		.loc 1 673 32 is_stmt 0 view .LVU341
 1348 0020 C369     		ldr	r3, [r0, #28]
 1349 0022 62F30B03 		bfi	r3, r2, #0, #12
 1350 0026 C361     		str	r3, [r0, #28]
 674:./libraries/drivers/src/at32f413_adc.c ****       break;
 1351              		.loc 1 674 7 is_stmt 1 view .LVU342
 1352 0028 7047     		bx	lr
 1353              	.L108:
 675:./libraries/drivers/src/at32f413_adc.c ****     case ADC_PREEMPT_CHANNEL_4:
 676:./libraries/drivers/src/at32f413_adc.c ****       adc_x->pcdto4_bit.pcdto4 = adc_offset_value;
ARM GAS  C:\Users\J\AppData\Local\Temp\cco2cDAd.s 			page 39


 1354              		.loc 1 676 7 view .LVU343
 1355              		.loc 1 676 32 is_stmt 0 view .LVU344
 1356 002a 036A     		ldr	r3, [r0, #32]
 1357 002c 62F30B03 		bfi	r3, r2, #0, #12
 1358 0030 0362     		str	r3, [r0, #32]
 677:./libraries/drivers/src/at32f413_adc.c ****       break;
 1359              		.loc 1 677 7 is_stmt 1 view .LVU345
 1360              	.L106:
 678:./libraries/drivers/src/at32f413_adc.c ****     default:
 679:./libraries/drivers/src/at32f413_adc.c ****       break;
 680:./libraries/drivers/src/at32f413_adc.c ****   }
 681:./libraries/drivers/src/at32f413_adc.c **** }
 1361              		.loc 1 681 1 is_stmt 0 view .LVU346
 1362 0032 7047     		bx	lr
 1363              		.cfi_endproc
 1364              	.LFE152:
 1366              		.section	.text.adc_ordinary_part_count_set,"ax",%progbits
 1367              		.align	1
 1368              		.global	adc_ordinary_part_count_set
 1369              		.syntax unified
 1370              		.thumb
 1371              		.thumb_func
 1372              		.fpu fpv4-sp-d16
 1374              	adc_ordinary_part_count_set:
 1375              	.LVL55:
 1376              	.LFB153:
 682:./libraries/drivers/src/at32f413_adc.c **** 
 683:./libraries/drivers/src/at32f413_adc.c **** /**
 684:./libraries/drivers/src/at32f413_adc.c ****   * @brief  set partitioned mode channel count of the specified adc peripheral.
 685:./libraries/drivers/src/at32f413_adc.c ****   * @param  adc_x: select the adc peripheral.
 686:./libraries/drivers/src/at32f413_adc.c ****   *         this parameter can be one of the following values:
 687:./libraries/drivers/src/at32f413_adc.c ****   *         ADC1, ADC2.
 688:./libraries/drivers/src/at32f413_adc.c ****   * @param  adc_channel_count: configure the adc partitioned mode channel count.
 689:./libraries/drivers/src/at32f413_adc.c ****   *         this parameter can be:
 690:./libraries/drivers/src/at32f413_adc.c ****   *         - (0x1~0x8)
 691:./libraries/drivers/src/at32f413_adc.c ****   * @retval none
 692:./libraries/drivers/src/at32f413_adc.c ****   */
 693:./libraries/drivers/src/at32f413_adc.c **** void adc_ordinary_part_count_set(adc_type *adc_x, uint8_t adc_channel_count)
 694:./libraries/drivers/src/at32f413_adc.c **** {
 1377              		.loc 1 694 1 is_stmt 1 view -0
 1378              		.cfi_startproc
 1379              		@ args = 0, pretend = 0, frame = 0
 1380              		@ frame_needed = 0, uses_anonymous_args = 0
 1381              		@ link register save eliminated.
 695:./libraries/drivers/src/at32f413_adc.c **** 
 696:./libraries/drivers/src/at32f413_adc.c ****   adc_x->ctrl1_bit.ocpcnt =  adc_channel_count - 1;
 1382              		.loc 1 696 3 view .LVU348
 1383              		.loc 1 696 48 is_stmt 0 view .LVU349
 1384 0000 0139     		subs	r1, r1, #1
 1385              	.LVL56:
 1386              		.loc 1 696 27 view .LVU350
 1387 0002 4368     		ldr	r3, [r0, #4]
 1388 0004 61F34F33 		bfi	r3, r1, #13, #3
 1389 0008 4360     		str	r3, [r0, #4]
 697:./libraries/drivers/src/at32f413_adc.c **** }
 1390              		.loc 1 697 1 view .LVU351
 1391 000a 7047     		bx	lr
ARM GAS  C:\Users\J\AppData\Local\Temp\cco2cDAd.s 			page 40


 1392              		.cfi_endproc
 1393              	.LFE153:
 1395              		.section	.text.adc_ordinary_part_mode_enable,"ax",%progbits
 1396              		.align	1
 1397              		.global	adc_ordinary_part_mode_enable
 1398              		.syntax unified
 1399              		.thumb
 1400              		.thumb_func
 1401              		.fpu fpv4-sp-d16
 1403              	adc_ordinary_part_mode_enable:
 1404              	.LVL57:
 1405              	.LFB154:
 698:./libraries/drivers/src/at32f413_adc.c **** 
 699:./libraries/drivers/src/at32f413_adc.c **** /**
 700:./libraries/drivers/src/at32f413_adc.c ****   * @brief  enable or disable the partitioned mode on ordinary channel of the specified adc periphe
 701:./libraries/drivers/src/at32f413_adc.c ****   * @param  adc_x: select the adc peripheral.
 702:./libraries/drivers/src/at32f413_adc.c ****   *         this parameter can be one of the following values:
 703:./libraries/drivers/src/at32f413_adc.c ****   *         ADC1, ADC2.
 704:./libraries/drivers/src/at32f413_adc.c ****   * @param  new_state: new state of ordinary channel's partitioned mode.
 705:./libraries/drivers/src/at32f413_adc.c ****   *         this parameter can be: TRUE or FALSE.
 706:./libraries/drivers/src/at32f413_adc.c ****   * @retval none
 707:./libraries/drivers/src/at32f413_adc.c ****   */
 708:./libraries/drivers/src/at32f413_adc.c **** void adc_ordinary_part_mode_enable(adc_type *adc_x, confirm_state new_state)
 709:./libraries/drivers/src/at32f413_adc.c **** {
 1406              		.loc 1 709 1 is_stmt 1 view -0
 1407              		.cfi_startproc
 1408              		@ args = 0, pretend = 0, frame = 0
 1409              		@ frame_needed = 0, uses_anonymous_args = 0
 1410              		@ link register save eliminated.
 710:./libraries/drivers/src/at32f413_adc.c ****   adc_x->ctrl1_bit.ocpen = new_state;
 1411              		.loc 1 710 3 view .LVU353
 1412              		.loc 1 710 26 is_stmt 0 view .LVU354
 1413 0000 4368     		ldr	r3, [r0, #4]
 1414 0002 61F3CB23 		bfi	r3, r1, #11, #1
 1415 0006 4360     		str	r3, [r0, #4]
 711:./libraries/drivers/src/at32f413_adc.c **** }
 1416              		.loc 1 711 1 view .LVU355
 1417 0008 7047     		bx	lr
 1418              		.cfi_endproc
 1419              	.LFE154:
 1421              		.section	.text.adc_preempt_part_mode_enable,"ax",%progbits
 1422              		.align	1
 1423              		.global	adc_preempt_part_mode_enable
 1424              		.syntax unified
 1425              		.thumb
 1426              		.thumb_func
 1427              		.fpu fpv4-sp-d16
 1429              	adc_preempt_part_mode_enable:
 1430              	.LVL58:
 1431              	.LFB155:
 712:./libraries/drivers/src/at32f413_adc.c **** 
 713:./libraries/drivers/src/at32f413_adc.c **** /**
 714:./libraries/drivers/src/at32f413_adc.c ****   * @brief  enable or disable the partitioned mode on preempt channel of the specified adc peripher
 715:./libraries/drivers/src/at32f413_adc.c ****   * @param  adc_x: select the adc peripheral.
 716:./libraries/drivers/src/at32f413_adc.c ****   *         this parameter can be one of the following values:
 717:./libraries/drivers/src/at32f413_adc.c ****   *         ADC1, ADC2.
 718:./libraries/drivers/src/at32f413_adc.c ****   * @param  new_state: new state of preempt channel's partitioned mode.
ARM GAS  C:\Users\J\AppData\Local\Temp\cco2cDAd.s 			page 41


 719:./libraries/drivers/src/at32f413_adc.c ****   *         this parameter can be: TRUE or FALSE.
 720:./libraries/drivers/src/at32f413_adc.c ****   * @retval none
 721:./libraries/drivers/src/at32f413_adc.c ****   */
 722:./libraries/drivers/src/at32f413_adc.c **** void adc_preempt_part_mode_enable(adc_type *adc_x, confirm_state new_state)
 723:./libraries/drivers/src/at32f413_adc.c **** {
 1432              		.loc 1 723 1 is_stmt 1 view -0
 1433              		.cfi_startproc
 1434              		@ args = 0, pretend = 0, frame = 0
 1435              		@ frame_needed = 0, uses_anonymous_args = 0
 1436              		@ link register save eliminated.
 724:./libraries/drivers/src/at32f413_adc.c ****   adc_x->ctrl1_bit.pcpen = new_state;
 1437              		.loc 1 724 3 view .LVU357
 1438              		.loc 1 724 26 is_stmt 0 view .LVU358
 1439 0000 4368     		ldr	r3, [r0, #4]
 1440 0002 61F30C33 		bfi	r3, r1, #12, #1
 1441 0006 4360     		str	r3, [r0, #4]
 725:./libraries/drivers/src/at32f413_adc.c **** }
 1442              		.loc 1 725 1 view .LVU359
 1443 0008 7047     		bx	lr
 1444              		.cfi_endproc
 1445              	.LFE155:
 1447              		.section	.text.adc_preempt_auto_mode_enable,"ax",%progbits
 1448              		.align	1
 1449              		.global	adc_preempt_auto_mode_enable
 1450              		.syntax unified
 1451              		.thumb
 1452              		.thumb_func
 1453              		.fpu fpv4-sp-d16
 1455              	adc_preempt_auto_mode_enable:
 1456              	.LVL59:
 1457              	.LFB156:
 726:./libraries/drivers/src/at32f413_adc.c **** 
 727:./libraries/drivers/src/at32f413_adc.c **** /**
 728:./libraries/drivers/src/at32f413_adc.c ****   * @brief  enable or disable automatic preempt group conversion of the specified adc peripheral.
 729:./libraries/drivers/src/at32f413_adc.c ****   * @param  adc_x: select the adc peripheral.
 730:./libraries/drivers/src/at32f413_adc.c ****   *         this parameter can be one of the following values:
 731:./libraries/drivers/src/at32f413_adc.c ****   *         ADC1, ADC2.
 732:./libraries/drivers/src/at32f413_adc.c ****   * @param  new_state: new state of automatic preempt group conversion.
 733:./libraries/drivers/src/at32f413_adc.c ****   *         this parameter can be: TRUE or FALSE.
 734:./libraries/drivers/src/at32f413_adc.c ****   * @retval none
 735:./libraries/drivers/src/at32f413_adc.c ****   */
 736:./libraries/drivers/src/at32f413_adc.c **** void adc_preempt_auto_mode_enable(adc_type *adc_x, confirm_state new_state)
 737:./libraries/drivers/src/at32f413_adc.c **** {
 1458              		.loc 1 737 1 is_stmt 1 view -0
 1459              		.cfi_startproc
 1460              		@ args = 0, pretend = 0, frame = 0
 1461              		@ frame_needed = 0, uses_anonymous_args = 0
 1462              		@ link register save eliminated.
 738:./libraries/drivers/src/at32f413_adc.c ****   adc_x->ctrl1_bit.pcautoen = new_state;
 1463              		.loc 1 738 3 view .LVU361
 1464              		.loc 1 738 29 is_stmt 0 view .LVU362
 1465 0000 4368     		ldr	r3, [r0, #4]
 1466 0002 61F38A23 		bfi	r3, r1, #10, #1
 1467 0006 4360     		str	r3, [r0, #4]
 739:./libraries/drivers/src/at32f413_adc.c **** }
 1468              		.loc 1 739 1 view .LVU363
 1469 0008 7047     		bx	lr
ARM GAS  C:\Users\J\AppData\Local\Temp\cco2cDAd.s 			page 42


 1470              		.cfi_endproc
 1471              	.LFE156:
 1473              		.section	.text.adc_tempersensor_vintrv_enable,"ax",%progbits
 1474              		.align	1
 1475              		.global	adc_tempersensor_vintrv_enable
 1476              		.syntax unified
 1477              		.thumb
 1478              		.thumb_func
 1479              		.fpu fpv4-sp-d16
 1481              	adc_tempersensor_vintrv_enable:
 1482              	.LVL60:
 1483              	.LFB157:
 740:./libraries/drivers/src/at32f413_adc.c **** 
 741:./libraries/drivers/src/at32f413_adc.c **** /**
 742:./libraries/drivers/src/at32f413_adc.c ****   * @brief  enable or disable the temperature sensor and vintrv channel.
 743:./libraries/drivers/src/at32f413_adc.c ****   * @param  new_state: new state of Internal temperature sensor and vintrv.
 744:./libraries/drivers/src/at32f413_adc.c ****   *         this parameter can be: TRUE or FALSE.
 745:./libraries/drivers/src/at32f413_adc.c ****   *         note:this bit is present only in adc1
 746:./libraries/drivers/src/at32f413_adc.c ****   * @retval none
 747:./libraries/drivers/src/at32f413_adc.c ****   */
 748:./libraries/drivers/src/at32f413_adc.c **** void adc_tempersensor_vintrv_enable(confirm_state new_state)
 749:./libraries/drivers/src/at32f413_adc.c **** {
 1484              		.loc 1 749 1 is_stmt 1 view -0
 1485              		.cfi_startproc
 1486              		@ args = 0, pretend = 0, frame = 0
 1487              		@ frame_needed = 0, uses_anonymous_args = 0
 1488              		@ link register save eliminated.
 750:./libraries/drivers/src/at32f413_adc.c ****   ADC1->ctrl2_bit.itsrven = new_state;
 1489              		.loc 1 750 3 view .LVU365
 1490              		.loc 1 750 27 is_stmt 0 view .LVU366
 1491 0000 024B     		ldr	r3, .L118
 1492 0002 9A68     		ldr	r2, [r3, #8]
 1493 0004 60F3D752 		bfi	r2, r0, #23, #1
 1494 0008 9A60     		str	r2, [r3, #8]
 751:./libraries/drivers/src/at32f413_adc.c **** }
 1495              		.loc 1 751 1 view .LVU367
 1496 000a 7047     		bx	lr
 1497              	.L119:
 1498              		.align	2
 1499              	.L118:
 1500 000c 00240140 		.word	1073816576
 1501              		.cfi_endproc
 1502              	.LFE157:
 1504              		.section	.text.adc_ordinary_software_trigger_enable,"ax",%progbits
 1505              		.align	1
 1506              		.global	adc_ordinary_software_trigger_enable
 1507              		.syntax unified
 1508              		.thumb
 1509              		.thumb_func
 1510              		.fpu fpv4-sp-d16
 1512              	adc_ordinary_software_trigger_enable:
 1513              	.LVL61:
 1514              	.LFB158:
 752:./libraries/drivers/src/at32f413_adc.c **** 
 753:./libraries/drivers/src/at32f413_adc.c **** /**
 754:./libraries/drivers/src/at32f413_adc.c ****   * @brief  enable or disable ordinary software start conversion of the specified adc peripheral.
 755:./libraries/drivers/src/at32f413_adc.c ****   * @param  adc_x: select the adc peripheral.
ARM GAS  C:\Users\J\AppData\Local\Temp\cco2cDAd.s 			page 43


 756:./libraries/drivers/src/at32f413_adc.c ****   *         this parameter can be one of the following values:
 757:./libraries/drivers/src/at32f413_adc.c ****   *         ADC1, ADC2.
 758:./libraries/drivers/src/at32f413_adc.c ****   * @param  new_state: new state of ordinary software start conversion.
 759:./libraries/drivers/src/at32f413_adc.c ****   *         this parameter can be: TRUE or FALSE.
 760:./libraries/drivers/src/at32f413_adc.c ****   * @retval none
 761:./libraries/drivers/src/at32f413_adc.c ****   */
 762:./libraries/drivers/src/at32f413_adc.c **** void adc_ordinary_software_trigger_enable(adc_type *adc_x, confirm_state new_state)
 763:./libraries/drivers/src/at32f413_adc.c **** {
 1515              		.loc 1 763 1 is_stmt 1 view -0
 1516              		.cfi_startproc
 1517              		@ args = 0, pretend = 0, frame = 0
 1518              		@ frame_needed = 0, uses_anonymous_args = 0
 1519              		@ link register save eliminated.
 764:./libraries/drivers/src/at32f413_adc.c ****   adc_x->ctrl2_bit.ocswtrg = new_state;
 1520              		.loc 1 764 3 view .LVU369
 1521              		.loc 1 764 28 is_stmt 0 view .LVU370
 1522 0000 8368     		ldr	r3, [r0, #8]
 1523 0002 61F39653 		bfi	r3, r1, #22, #1
 1524 0006 8360     		str	r3, [r0, #8]
 765:./libraries/drivers/src/at32f413_adc.c **** }
 1525              		.loc 1 765 1 view .LVU371
 1526 0008 7047     		bx	lr
 1527              		.cfi_endproc
 1528              	.LFE158:
 1530              		.section	.text.adc_ordinary_software_trigger_status_get,"ax",%progbits
 1531              		.align	1
 1532              		.global	adc_ordinary_software_trigger_status_get
 1533              		.syntax unified
 1534              		.thumb
 1535              		.thumb_func
 1536              		.fpu fpv4-sp-d16
 1538              	adc_ordinary_software_trigger_status_get:
 1539              	.LVL62:
 1540              	.LFB159:
 766:./libraries/drivers/src/at32f413_adc.c **** 
 767:./libraries/drivers/src/at32f413_adc.c **** /**
 768:./libraries/drivers/src/at32f413_adc.c ****   * @brief  get ordinary software start conversion status of the specified adc peripheral.
 769:./libraries/drivers/src/at32f413_adc.c ****   * @param  adc_x: select the adc peripheral.
 770:./libraries/drivers/src/at32f413_adc.c ****   *         this parameter can be one of the following values:
 771:./libraries/drivers/src/at32f413_adc.c ****   *         ADC1, ADC2.
 772:./libraries/drivers/src/at32f413_adc.c ****   * @retval the new state of ordinary software start conversion status(SET or RESET).
 773:./libraries/drivers/src/at32f413_adc.c ****   */
 774:./libraries/drivers/src/at32f413_adc.c **** flag_status adc_ordinary_software_trigger_status_get(adc_type *adc_x)
 775:./libraries/drivers/src/at32f413_adc.c **** {
 1541              		.loc 1 775 1 is_stmt 1 view -0
 1542              		.cfi_startproc
 1543              		@ args = 0, pretend = 0, frame = 0
 1544              		@ frame_needed = 0, uses_anonymous_args = 0
 1545              		@ link register save eliminated.
 776:./libraries/drivers/src/at32f413_adc.c ****   if(adc_x->ctrl2_bit.ocswtrg)
 1546              		.loc 1 776 3 view .LVU373
 1547              		.loc 1 776 22 is_stmt 0 view .LVU374
 1548 0000 8368     		ldr	r3, [r0, #8]
 1549              		.loc 1 776 5 view .LVU375
 1550 0002 13F4800F 		tst	r3, #4194304
 1551 0006 01D0     		beq	.L123
 777:./libraries/drivers/src/at32f413_adc.c ****   {
ARM GAS  C:\Users\J\AppData\Local\Temp\cco2cDAd.s 			page 44


 778:./libraries/drivers/src/at32f413_adc.c ****     return SET;
 1552              		.loc 1 778 12 view .LVU376
 1553 0008 0120     		movs	r0, #1
 1554              	.LVL63:
 1555              		.loc 1 778 12 view .LVU377
 1556 000a 7047     		bx	lr
 1557              	.LVL64:
 1558              	.L123:
 779:./libraries/drivers/src/at32f413_adc.c ****   }
 780:./libraries/drivers/src/at32f413_adc.c ****   else
 781:./libraries/drivers/src/at32f413_adc.c ****   {
 782:./libraries/drivers/src/at32f413_adc.c ****     return RESET;
 1559              		.loc 1 782 12 view .LVU378
 1560 000c 0020     		movs	r0, #0
 1561              	.LVL65:
 783:./libraries/drivers/src/at32f413_adc.c ****   }
 784:./libraries/drivers/src/at32f413_adc.c **** }
 1562              		.loc 1 784 1 view .LVU379
 1563 000e 7047     		bx	lr
 1564              		.cfi_endproc
 1565              	.LFE159:
 1567              		.section	.text.adc_preempt_software_trigger_enable,"ax",%progbits
 1568              		.align	1
 1569              		.global	adc_preempt_software_trigger_enable
 1570              		.syntax unified
 1571              		.thumb
 1572              		.thumb_func
 1573              		.fpu fpv4-sp-d16
 1575              	adc_preempt_software_trigger_enable:
 1576              	.LVL66:
 1577              	.LFB160:
 785:./libraries/drivers/src/at32f413_adc.c **** 
 786:./libraries/drivers/src/at32f413_adc.c **** /**
 787:./libraries/drivers/src/at32f413_adc.c ****   * @brief  enable or disable preempt software start conversion of the specified adc peripheral.
 788:./libraries/drivers/src/at32f413_adc.c ****   * @param  adc_x: select the adc peripheral.
 789:./libraries/drivers/src/at32f413_adc.c ****   *         this parameter can be one of the following values:
 790:./libraries/drivers/src/at32f413_adc.c ****   *         ADC1, ADC2.
 791:./libraries/drivers/src/at32f413_adc.c ****   * @param  new_state: new state of preempt software start conversion.
 792:./libraries/drivers/src/at32f413_adc.c ****   *         this parameter can be: TRUE or FALSE.
 793:./libraries/drivers/src/at32f413_adc.c ****   * @retval none
 794:./libraries/drivers/src/at32f413_adc.c ****   */
 795:./libraries/drivers/src/at32f413_adc.c **** void adc_preempt_software_trigger_enable(adc_type *adc_x, confirm_state new_state)
 796:./libraries/drivers/src/at32f413_adc.c **** {
 1578              		.loc 1 796 1 is_stmt 1 view -0
 1579              		.cfi_startproc
 1580              		@ args = 0, pretend = 0, frame = 0
 1581              		@ frame_needed = 0, uses_anonymous_args = 0
 1582              		@ link register save eliminated.
 797:./libraries/drivers/src/at32f413_adc.c ****   adc_x->ctrl2_bit.pcswtrg = new_state;
 1583              		.loc 1 797 3 view .LVU381
 1584              		.loc 1 797 28 is_stmt 0 view .LVU382
 1585 0000 8368     		ldr	r3, [r0, #8]
 1586 0002 61F35553 		bfi	r3, r1, #21, #1
 1587 0006 8360     		str	r3, [r0, #8]
 798:./libraries/drivers/src/at32f413_adc.c **** }
 1588              		.loc 1 798 1 view .LVU383
 1589 0008 7047     		bx	lr
ARM GAS  C:\Users\J\AppData\Local\Temp\cco2cDAd.s 			page 45


 1590              		.cfi_endproc
 1591              	.LFE160:
 1593              		.section	.text.adc_preempt_software_trigger_status_get,"ax",%progbits
 1594              		.align	1
 1595              		.global	adc_preempt_software_trigger_status_get
 1596              		.syntax unified
 1597              		.thumb
 1598              		.thumb_func
 1599              		.fpu fpv4-sp-d16
 1601              	adc_preempt_software_trigger_status_get:
 1602              	.LVL67:
 1603              	.LFB161:
 799:./libraries/drivers/src/at32f413_adc.c **** 
 800:./libraries/drivers/src/at32f413_adc.c **** /**
 801:./libraries/drivers/src/at32f413_adc.c ****   * @brief  get preempt software start conversion status of the specified adc peripheral.
 802:./libraries/drivers/src/at32f413_adc.c ****   * @param  adc_x: select the adc peripheral.
 803:./libraries/drivers/src/at32f413_adc.c ****   *         this parameter can be one of the following values:
 804:./libraries/drivers/src/at32f413_adc.c ****   *         ADC1, ADC2.
 805:./libraries/drivers/src/at32f413_adc.c ****   * @retval the new state of preempt software start conversion status(SET or RESET).
 806:./libraries/drivers/src/at32f413_adc.c ****   */
 807:./libraries/drivers/src/at32f413_adc.c **** flag_status adc_preempt_software_trigger_status_get(adc_type *adc_x)
 808:./libraries/drivers/src/at32f413_adc.c **** {
 1604              		.loc 1 808 1 is_stmt 1 view -0
 1605              		.cfi_startproc
 1606              		@ args = 0, pretend = 0, frame = 0
 1607              		@ frame_needed = 0, uses_anonymous_args = 0
 1608              		@ link register save eliminated.
 809:./libraries/drivers/src/at32f413_adc.c ****   if(adc_x->ctrl2_bit.pcswtrg)
 1609              		.loc 1 809 3 view .LVU385
 1610              		.loc 1 809 22 is_stmt 0 view .LVU386
 1611 0000 8368     		ldr	r3, [r0, #8]
 1612              		.loc 1 809 5 view .LVU387
 1613 0002 13F4001F 		tst	r3, #2097152
 1614 0006 01D0     		beq	.L127
 810:./libraries/drivers/src/at32f413_adc.c ****   {
 811:./libraries/drivers/src/at32f413_adc.c ****     return SET;
 1615              		.loc 1 811 12 view .LVU388
 1616 0008 0120     		movs	r0, #1
 1617              	.LVL68:
 1618              		.loc 1 811 12 view .LVU389
 1619 000a 7047     		bx	lr
 1620              	.LVL69:
 1621              	.L127:
 812:./libraries/drivers/src/at32f413_adc.c ****   }
 813:./libraries/drivers/src/at32f413_adc.c ****   else
 814:./libraries/drivers/src/at32f413_adc.c ****   {
 815:./libraries/drivers/src/at32f413_adc.c ****     return RESET;
 1622              		.loc 1 815 12 view .LVU390
 1623 000c 0020     		movs	r0, #0
 1624              	.LVL70:
 816:./libraries/drivers/src/at32f413_adc.c ****   }
 817:./libraries/drivers/src/at32f413_adc.c **** }
 1625              		.loc 1 817 1 view .LVU391
 1626 000e 7047     		bx	lr
 1627              		.cfi_endproc
 1628              	.LFE161:
 1630              		.section	.text.adc_ordinary_conversion_data_get,"ax",%progbits
ARM GAS  C:\Users\J\AppData\Local\Temp\cco2cDAd.s 			page 46


 1631              		.align	1
 1632              		.global	adc_ordinary_conversion_data_get
 1633              		.syntax unified
 1634              		.thumb
 1635              		.thumb_func
 1636              		.fpu fpv4-sp-d16
 1638              	adc_ordinary_conversion_data_get:
 1639              	.LVL71:
 1640              	.LFB162:
 818:./libraries/drivers/src/at32f413_adc.c **** 
 819:./libraries/drivers/src/at32f413_adc.c **** /**
 820:./libraries/drivers/src/at32f413_adc.c ****   * @brief  return the last conversion data for ordinary channel of the specified adc peripheral.
 821:./libraries/drivers/src/at32f413_adc.c ****   * @param  adc_x: select the adc peripheral.
 822:./libraries/drivers/src/at32f413_adc.c ****   *         this parameter can be one of the following values:
 823:./libraries/drivers/src/at32f413_adc.c ****   *         ADC1, ADC2.
 824:./libraries/drivers/src/at32f413_adc.c ****   * @retval the last conversion data for ordinary channel.
 825:./libraries/drivers/src/at32f413_adc.c ****   */
 826:./libraries/drivers/src/at32f413_adc.c **** uint16_t adc_ordinary_conversion_data_get(adc_type *adc_x)
 827:./libraries/drivers/src/at32f413_adc.c **** {
 1641              		.loc 1 827 1 is_stmt 1 view -0
 1642              		.cfi_startproc
 1643              		@ args = 0, pretend = 0, frame = 0
 1644              		@ frame_needed = 0, uses_anonymous_args = 0
 1645              		@ link register save eliminated.
 828:./libraries/drivers/src/at32f413_adc.c ****   return (uint16_t)(adc_x->odt_bit.odt);
 1646              		.loc 1 828 3 view .LVU393
 1647              		.loc 1 828 10 is_stmt 0 view .LVU394
 1648 0000 C06C     		ldr	r0, [r0, #76]
 1649              	.LVL72:
 829:./libraries/drivers/src/at32f413_adc.c **** }
 1650              		.loc 1 829 1 view .LVU395
 1651 0002 80B2     		uxth	r0, r0
 1652 0004 7047     		bx	lr
 1653              		.cfi_endproc
 1654              	.LFE162:
 1656              		.section	.text.adc_combine_ordinary_conversion_data_get,"ax",%progbits
 1657              		.align	1
 1658              		.global	adc_combine_ordinary_conversion_data_get
 1659              		.syntax unified
 1660              		.thumb
 1661              		.thumb_func
 1662              		.fpu fpv4-sp-d16
 1664              	adc_combine_ordinary_conversion_data_get:
 1665              	.LFB163:
 830:./libraries/drivers/src/at32f413_adc.c **** 
 831:./libraries/drivers/src/at32f413_adc.c **** /**
 832:./libraries/drivers/src/at32f413_adc.c ****   * @brief  return the last conversion data for ordinary channel of combine adc(adc1 and adc2).
 833:./libraries/drivers/src/at32f413_adc.c ****   * @retval the last conversion data for ordinary channel.
 834:./libraries/drivers/src/at32f413_adc.c ****   */
 835:./libraries/drivers/src/at32f413_adc.c **** uint32_t adc_combine_ordinary_conversion_data_get(void)
 836:./libraries/drivers/src/at32f413_adc.c **** {
 1666              		.loc 1 836 1 is_stmt 1 view -0
 1667              		.cfi_startproc
 1668              		@ args = 0, pretend = 0, frame = 0
 1669              		@ frame_needed = 0, uses_anonymous_args = 0
 1670              		@ link register save eliminated.
 837:./libraries/drivers/src/at32f413_adc.c ****   return (uint32_t)(ADC1->odt);
ARM GAS  C:\Users\J\AppData\Local\Temp\cco2cDAd.s 			page 47


 1671              		.loc 1 837 3 view .LVU397
 1672              		.loc 1 837 10 is_stmt 0 view .LVU398
 1673 0000 014B     		ldr	r3, .L130
 1674 0002 D86C     		ldr	r0, [r3, #76]
 838:./libraries/drivers/src/at32f413_adc.c **** }
 1675              		.loc 1 838 1 view .LVU399
 1676 0004 7047     		bx	lr
 1677              	.L131:
 1678 0006 00BF     		.align	2
 1679              	.L130:
 1680 0008 00240140 		.word	1073816576
 1681              		.cfi_endproc
 1682              	.LFE163:
 1684              		.section	.text.adc_preempt_conversion_data_get,"ax",%progbits
 1685              		.align	1
 1686              		.global	adc_preempt_conversion_data_get
 1687              		.syntax unified
 1688              		.thumb
 1689              		.thumb_func
 1690              		.fpu fpv4-sp-d16
 1692              	adc_preempt_conversion_data_get:
 1693              	.LVL73:
 1694              	.LFB164:
 839:./libraries/drivers/src/at32f413_adc.c **** 
 840:./libraries/drivers/src/at32f413_adc.c **** /**
 841:./libraries/drivers/src/at32f413_adc.c ****   * @brief  return the conversion data for selection preempt channel of the specified adc periphera
 842:./libraries/drivers/src/at32f413_adc.c ****   * @param  adc_x: select the adc peripheral.
 843:./libraries/drivers/src/at32f413_adc.c ****   *         this parameter can be one of the following values:
 844:./libraries/drivers/src/at32f413_adc.c ****   *         ADC1, ADC2.
 845:./libraries/drivers/src/at32f413_adc.c ****   * @param  adc_preempt_channel: select the preempt channel.
 846:./libraries/drivers/src/at32f413_adc.c ****   *         this parameter can be one of the following values:
 847:./libraries/drivers/src/at32f413_adc.c ****   *         - ADC_PREEMPTED_CHANNEL_1
 848:./libraries/drivers/src/at32f413_adc.c ****   *         - ADC_PREEMPTED_CHANNEL_2
 849:./libraries/drivers/src/at32f413_adc.c ****   *         - ADC_PREEMPTED_CHANNEL_3
 850:./libraries/drivers/src/at32f413_adc.c ****   *         - ADC_PREEMPTED_CHANNEL_4
 851:./libraries/drivers/src/at32f413_adc.c ****   * @retval the conversion data for selection preempt channel.
 852:./libraries/drivers/src/at32f413_adc.c ****   */
 853:./libraries/drivers/src/at32f413_adc.c **** uint16_t adc_preempt_conversion_data_get(adc_type *adc_x, adc_preempt_channel_type adc_preempt_chan
 854:./libraries/drivers/src/at32f413_adc.c **** {
 1695              		.loc 1 854 1 is_stmt 1 view -0
 1696              		.cfi_startproc
 1697              		@ args = 0, pretend = 0, frame = 0
 1698              		@ frame_needed = 0, uses_anonymous_args = 0
 1699              		@ link register save eliminated.
 855:./libraries/drivers/src/at32f413_adc.c ****   uint16_t preempt_conv_data_index = 0;
 1700              		.loc 1 855 3 view .LVU401
 856:./libraries/drivers/src/at32f413_adc.c ****   switch(adc_preempt_channel)
 1701              		.loc 1 856 3 view .LVU402
 1702 0000 0329     		cmp	r1, #3
 1703 0002 0FD8     		bhi	.L139
 1704 0004 DFE801F0 		tbb	[pc, r1]
 1705              	.L135:
 1706 0008 02       		.byte	(.L138-.L135)/2
 1707 0009 05       		.byte	(.L137-.L135)/2
 1708 000a 08       		.byte	(.L136-.L135)/2
 1709 000b 0B       		.byte	(.L134-.L135)/2
 1710              		.p2align 1
ARM GAS  C:\Users\J\AppData\Local\Temp\cco2cDAd.s 			page 48


 1711              	.L138:
 857:./libraries/drivers/src/at32f413_adc.c ****   {
 858:./libraries/drivers/src/at32f413_adc.c ****     case ADC_PREEMPT_CHANNEL_1:
 859:./libraries/drivers/src/at32f413_adc.c ****       preempt_conv_data_index = (uint16_t)(adc_x->pdt1_bit.pdt1);
 1712              		.loc 1 859 7 view .LVU403
 1713              		.loc 1 859 31 is_stmt 0 view .LVU404
 1714 000c C06B     		ldr	r0, [r0, #60]
 1715              	.LVL74:
 1716              		.loc 1 859 31 view .LVU405
 1717 000e 80B2     		uxth	r0, r0
 1718              	.LVL75:
 860:./libraries/drivers/src/at32f413_adc.c ****       break;
 1719              		.loc 1 860 7 is_stmt 1 view .LVU406
 1720 0010 7047     		bx	lr
 1721              	.LVL76:
 1722              	.L137:
 861:./libraries/drivers/src/at32f413_adc.c ****     case ADC_PREEMPT_CHANNEL_2:
 862:./libraries/drivers/src/at32f413_adc.c ****       preempt_conv_data_index = (uint16_t)(adc_x->pdt2_bit.pdt2);
 1723              		.loc 1 862 7 view .LVU407
 1724              		.loc 1 862 31 is_stmt 0 view .LVU408
 1725 0012 006C     		ldr	r0, [r0, #64]
 1726              	.LVL77:
 1727              		.loc 1 862 31 view .LVU409
 1728 0014 80B2     		uxth	r0, r0
 1729              	.LVL78:
 863:./libraries/drivers/src/at32f413_adc.c ****       break;
 1730              		.loc 1 863 7 is_stmt 1 view .LVU410
 1731 0016 7047     		bx	lr
 1732              	.LVL79:
 1733              	.L136:
 864:./libraries/drivers/src/at32f413_adc.c ****     case ADC_PREEMPT_CHANNEL_3:
 865:./libraries/drivers/src/at32f413_adc.c ****       preempt_conv_data_index = (uint16_t)(adc_x->pdt3_bit.pdt3);
 1734              		.loc 1 865 7 view .LVU411
 1735              		.loc 1 865 31 is_stmt 0 view .LVU412
 1736 0018 406C     		ldr	r0, [r0, #68]
 1737              	.LVL80:
 1738              		.loc 1 865 31 view .LVU413
 1739 001a 80B2     		uxth	r0, r0
 1740              	.LVL81:
 866:./libraries/drivers/src/at32f413_adc.c ****       break;
 1741              		.loc 1 866 7 is_stmt 1 view .LVU414
 1742 001c 7047     		bx	lr
 1743              	.LVL82:
 1744              	.L134:
 867:./libraries/drivers/src/at32f413_adc.c ****     case ADC_PREEMPT_CHANNEL_4:
 868:./libraries/drivers/src/at32f413_adc.c ****       preempt_conv_data_index = (uint16_t)(adc_x->pdt4_bit.pdt4);
 1745              		.loc 1 868 7 view .LVU415
 1746              		.loc 1 868 31 is_stmt 0 view .LVU416
 1747 001e 806C     		ldr	r0, [r0, #72]
 1748              	.LVL83:
 1749              		.loc 1 868 31 view .LVU417
 1750 0020 80B2     		uxth	r0, r0
 1751              	.LVL84:
 869:./libraries/drivers/src/at32f413_adc.c ****       break;
 1752              		.loc 1 869 7 is_stmt 1 view .LVU418
 1753 0022 7047     		bx	lr
 1754              	.LVL85:
ARM GAS  C:\Users\J\AppData\Local\Temp\cco2cDAd.s 			page 49


 1755              	.L139:
 856:./libraries/drivers/src/at32f413_adc.c ****   {
 1756              		.loc 1 856 3 is_stmt 0 view .LVU419
 1757 0024 0020     		movs	r0, #0
 1758              	.LVL86:
 870:./libraries/drivers/src/at32f413_adc.c ****     default:
 871:./libraries/drivers/src/at32f413_adc.c ****       break;
 872:./libraries/drivers/src/at32f413_adc.c ****   }
 873:./libraries/drivers/src/at32f413_adc.c ****   return preempt_conv_data_index;
 1759              		.loc 1 873 3 is_stmt 1 view .LVU420
 874:./libraries/drivers/src/at32f413_adc.c **** }
 1760              		.loc 1 874 1 is_stmt 0 view .LVU421
 1761 0026 7047     		bx	lr
 1762              		.cfi_endproc
 1763              	.LFE164:
 1765              		.section	.text.adc_flag_get,"ax",%progbits
 1766              		.align	1
 1767              		.global	adc_flag_get
 1768              		.syntax unified
 1769              		.thumb
 1770              		.thumb_func
 1771              		.fpu fpv4-sp-d16
 1773              	adc_flag_get:
 1774              	.LVL87:
 1775              	.LFB165:
 875:./libraries/drivers/src/at32f413_adc.c **** 
 876:./libraries/drivers/src/at32f413_adc.c **** /**
 877:./libraries/drivers/src/at32f413_adc.c ****   * @brief  get flag of the specified adc peripheral.
 878:./libraries/drivers/src/at32f413_adc.c ****   * @param  adc_x: select the adc peripheral.
 879:./libraries/drivers/src/at32f413_adc.c ****   *         this parameter can be one of the following values:
 880:./libraries/drivers/src/at32f413_adc.c ****   *         ADC1, ADC2.
 881:./libraries/drivers/src/at32f413_adc.c ****   * @param  adc_flag: select the adc flag.
 882:./libraries/drivers/src/at32f413_adc.c ****   *         this parameter can be one of the following values:
 883:./libraries/drivers/src/at32f413_adc.c ****   *         - ADC_VMOR_FLAG
 884:./libraries/drivers/src/at32f413_adc.c ****   *         - ADC_CCE_FLAG
 885:./libraries/drivers/src/at32f413_adc.c ****   *         - ADC_PCCE_FLAG
 886:./libraries/drivers/src/at32f413_adc.c ****   *         - ADC_PCCS_FLAG(no interrupt associated)
 887:./libraries/drivers/src/at32f413_adc.c ****   *         - ADC_OCCS_FLAG(no interrupt associated)
 888:./libraries/drivers/src/at32f413_adc.c ****   * @retval the new state of adc flag status(SET or RESET).
 889:./libraries/drivers/src/at32f413_adc.c ****   */
 890:./libraries/drivers/src/at32f413_adc.c **** flag_status adc_flag_get(adc_type *adc_x, uint8_t adc_flag)
 891:./libraries/drivers/src/at32f413_adc.c **** {
 1776              		.loc 1 891 1 is_stmt 1 view -0
 1777              		.cfi_startproc
 1778              		@ args = 0, pretend = 0, frame = 0
 1779              		@ frame_needed = 0, uses_anonymous_args = 0
 1780              		@ link register save eliminated.
 892:./libraries/drivers/src/at32f413_adc.c ****   flag_status status = RESET;
 1781              		.loc 1 892 3 view .LVU423
 893:./libraries/drivers/src/at32f413_adc.c **** 
 894:./libraries/drivers/src/at32f413_adc.c ****   if((adc_x->sts & adc_flag) == RESET)
 1782              		.loc 1 894 3 view .LVU424
 1783              		.loc 1 894 12 is_stmt 0 view .LVU425
 1784 0000 0368     		ldr	r3, [r0]
 1785              		.loc 1 894 5 view .LVU426
 1786 0002 1942     		tst	r1, r3
 1787 0004 01D1     		bne	.L142
ARM GAS  C:\Users\J\AppData\Local\Temp\cco2cDAd.s 			page 50


 895:./libraries/drivers/src/at32f413_adc.c ****   {
 896:./libraries/drivers/src/at32f413_adc.c ****     status = RESET;
 1788              		.loc 1 896 12 view .LVU427
 1789 0006 0020     		movs	r0, #0
 1790              	.LVL88:
 1791              		.loc 1 896 12 view .LVU428
 1792 0008 7047     		bx	lr
 1793              	.LVL89:
 1794              	.L142:
 897:./libraries/drivers/src/at32f413_adc.c ****   }
 898:./libraries/drivers/src/at32f413_adc.c ****   else
 899:./libraries/drivers/src/at32f413_adc.c ****   {
 900:./libraries/drivers/src/at32f413_adc.c ****     status = SET;
 1795              		.loc 1 900 12 view .LVU429
 1796 000a 0120     		movs	r0, #1
 1797              	.LVL90:
 901:./libraries/drivers/src/at32f413_adc.c ****   }
 902:./libraries/drivers/src/at32f413_adc.c ****   return status;
 1798              		.loc 1 902 3 is_stmt 1 view .LVU430
 903:./libraries/drivers/src/at32f413_adc.c **** }
 1799              		.loc 1 903 1 is_stmt 0 view .LVU431
 1800 000c 7047     		bx	lr
 1801              		.cfi_endproc
 1802              	.LFE165:
 1804              		.section	.text.adc_flag_clear,"ax",%progbits
 1805              		.align	1
 1806              		.global	adc_flag_clear
 1807              		.syntax unified
 1808              		.thumb
 1809              		.thumb_func
 1810              		.fpu fpv4-sp-d16
 1812              	adc_flag_clear:
 1813              	.LVL91:
 1814              	.LFB166:
 904:./libraries/drivers/src/at32f413_adc.c **** 
 905:./libraries/drivers/src/at32f413_adc.c **** /**
 906:./libraries/drivers/src/at32f413_adc.c ****   * @brief  clear flag of the specified adc peripheral.
 907:./libraries/drivers/src/at32f413_adc.c ****   * @param  adc_x: select the adc peripheral.
 908:./libraries/drivers/src/at32f413_adc.c ****   *         this parameter can be one of the following values:
 909:./libraries/drivers/src/at32f413_adc.c ****   *         ADC1, ADC2.
 910:./libraries/drivers/src/at32f413_adc.c ****   * @param  adc_flag: select the adc flag.
 911:./libraries/drivers/src/at32f413_adc.c ****   *         this parameter can be any combination of the following values:
 912:./libraries/drivers/src/at32f413_adc.c ****   *         - ADC_VMOR_FLAG
 913:./libraries/drivers/src/at32f413_adc.c ****   *         - ADC_CCE_FLAG(also can clear by reading the adc_x->odt)
 914:./libraries/drivers/src/at32f413_adc.c ****   *         - ADC_PCCE_FLAG
 915:./libraries/drivers/src/at32f413_adc.c ****   *         - ADC_PCCS_FLAG
 916:./libraries/drivers/src/at32f413_adc.c ****   *         - ADC_OCCS_FLAG
 917:./libraries/drivers/src/at32f413_adc.c ****   * @retval none
 918:./libraries/drivers/src/at32f413_adc.c ****   */
 919:./libraries/drivers/src/at32f413_adc.c **** void adc_flag_clear(adc_type *adc_x, uint32_t adc_flag)
 920:./libraries/drivers/src/at32f413_adc.c **** {
 1815              		.loc 1 920 1 is_stmt 1 view -0
 1816              		.cfi_startproc
 1817              		@ args = 0, pretend = 0, frame = 0
 1818              		@ frame_needed = 0, uses_anonymous_args = 0
 1819              		@ link register save eliminated.
 921:./libraries/drivers/src/at32f413_adc.c ****   adc_x->sts = ~adc_flag;
ARM GAS  C:\Users\J\AppData\Local\Temp\cco2cDAd.s 			page 51


 1820              		.loc 1 921 3 view .LVU433
 1821              		.loc 1 921 16 is_stmt 0 view .LVU434
 1822 0000 C943     		mvns	r1, r1
 1823              	.LVL92:
 1824              		.loc 1 921 14 view .LVU435
 1825 0002 0160     		str	r1, [r0]
 922:./libraries/drivers/src/at32f413_adc.c **** }
 1826              		.loc 1 922 1 view .LVU436
 1827 0004 7047     		bx	lr
 1828              		.cfi_endproc
 1829              	.LFE166:
 1831              		.text
 1832              	.Letext0:
 1833              		.file 2 "c:\\gcc-arm-none-eabi-10.3-2021.07\\arm-none-eabi\\include\\machine\\_default_types.h"
 1834              		.file 3 "c:\\gcc-arm-none-eabi-10.3-2021.07\\arm-none-eabi\\include\\sys\\_stdint.h"
 1835              		.file 4 "./libraries/cmsis/cm4/device_support/at32f413.h"
 1836              		.file 5 "./libraries/drivers/inc/at32f413_crm.h"
 1837              		.file 6 "./libraries/drivers/inc/at32f413_adc.h"
ARM GAS  C:\Users\J\AppData\Local\Temp\cco2cDAd.s 			page 52

